ARM GAS  C:\Users\rokko\AppData\Local\Temp\ccKJi3OA.s 			page 1


   1              		.cpu cortex-m0
   2              		.arch armv6s-m
   3              		.fpu softvfp
   4              		.eabi_attribute 20, 1
   5              		.eabi_attribute 21, 1
   6              		.eabi_attribute 23, 3
   7              		.eabi_attribute 24, 1
   8              		.eabi_attribute 25, 1
   9              		.eabi_attribute 26, 1
  10              		.eabi_attribute 30, 2
  11              		.eabi_attribute 34, 0
  12              		.eabi_attribute 18, 4
  13              		.file	"stm32f0xx_hal_gpio.c"
  14              		.text
  15              	.Ltext0:
  16              		.cfi_sections	.debug_frame
  17              		.section	.text.HAL_GPIO_Init,"ax",%progbits
  18              		.align	1
  19              		.p2align 2,,3
  20              		.global	HAL_GPIO_Init
  21              		.syntax unified
  22              		.code	16
  23              		.thumb_func
  25              	HAL_GPIO_Init:
  26              	.LVL0:
  27              	.LFB40:
  28              		.file 1 "Drivers/STM32F0xx_HAL_Driver/Src/stm32f0xx_hal_gpio.c"
   1:Drivers/STM32F0xx_HAL_Driver/Src/stm32f0xx_hal_gpio.c **** /**
   2:Drivers/STM32F0xx_HAL_Driver/Src/stm32f0xx_hal_gpio.c ****   ******************************************************************************
   3:Drivers/STM32F0xx_HAL_Driver/Src/stm32f0xx_hal_gpio.c ****   * @file    stm32f0xx_hal_gpio.c
   4:Drivers/STM32F0xx_HAL_Driver/Src/stm32f0xx_hal_gpio.c ****   * @author  MCD Application Team
   5:Drivers/STM32F0xx_HAL_Driver/Src/stm32f0xx_hal_gpio.c ****   * @brief   GPIO HAL module driver.
   6:Drivers/STM32F0xx_HAL_Driver/Src/stm32f0xx_hal_gpio.c ****   *          This file provides firmware functions to manage the following 
   7:Drivers/STM32F0xx_HAL_Driver/Src/stm32f0xx_hal_gpio.c ****   *          functionalities of the General Purpose Input/Output (GPIO) peripheral:
   8:Drivers/STM32F0xx_HAL_Driver/Src/stm32f0xx_hal_gpio.c ****   *           + Initialization and de-initialization functions
   9:Drivers/STM32F0xx_HAL_Driver/Src/stm32f0xx_hal_gpio.c ****   *           + IO operation functions
  10:Drivers/STM32F0xx_HAL_Driver/Src/stm32f0xx_hal_gpio.c ****   *         
  11:Drivers/STM32F0xx_HAL_Driver/Src/stm32f0xx_hal_gpio.c ****   @verbatim
  12:Drivers/STM32F0xx_HAL_Driver/Src/stm32f0xx_hal_gpio.c ****   ==============================================================================
  13:Drivers/STM32F0xx_HAL_Driver/Src/stm32f0xx_hal_gpio.c ****                     ##### GPIO Peripheral features #####
  14:Drivers/STM32F0xx_HAL_Driver/Src/stm32f0xx_hal_gpio.c ****   ==============================================================================         
  15:Drivers/STM32F0xx_HAL_Driver/Src/stm32f0xx_hal_gpio.c ****   [..] 
  16:Drivers/STM32F0xx_HAL_Driver/Src/stm32f0xx_hal_gpio.c ****     (+) Each port bit of the general-purpose I/O (GPIO) ports can be individually
  17:Drivers/STM32F0xx_HAL_Driver/Src/stm32f0xx_hal_gpio.c ****   configured by software in several modes:
  18:Drivers/STM32F0xx_HAL_Driver/Src/stm32f0xx_hal_gpio.c ****         (++) Input mode
  19:Drivers/STM32F0xx_HAL_Driver/Src/stm32f0xx_hal_gpio.c ****         (++) Analog mode
  20:Drivers/STM32F0xx_HAL_Driver/Src/stm32f0xx_hal_gpio.c ****         (++) Output mode
  21:Drivers/STM32F0xx_HAL_Driver/Src/stm32f0xx_hal_gpio.c ****         (++) Alternate function mode
  22:Drivers/STM32F0xx_HAL_Driver/Src/stm32f0xx_hal_gpio.c ****         (++) External interrupt/event lines
  23:Drivers/STM32F0xx_HAL_Driver/Src/stm32f0xx_hal_gpio.c ****  
  24:Drivers/STM32F0xx_HAL_Driver/Src/stm32f0xx_hal_gpio.c ****     (+) During and just after reset, the alternate functions and external interrupt
  25:Drivers/STM32F0xx_HAL_Driver/Src/stm32f0xx_hal_gpio.c ****   lines are not active and the I/O ports are configured in input floating mode.
  26:Drivers/STM32F0xx_HAL_Driver/Src/stm32f0xx_hal_gpio.c ****   
  27:Drivers/STM32F0xx_HAL_Driver/Src/stm32f0xx_hal_gpio.c ****     (+) All GPIO pins have weak internal pull-up and pull-down resistors, which can be
  28:Drivers/STM32F0xx_HAL_Driver/Src/stm32f0xx_hal_gpio.c ****   activated or not.
  29:Drivers/STM32F0xx_HAL_Driver/Src/stm32f0xx_hal_gpio.c ****            
  30:Drivers/STM32F0xx_HAL_Driver/Src/stm32f0xx_hal_gpio.c ****     (+) In Output or Alternate mode, each IO can be configured on open-drain or push-pull
ARM GAS  C:\Users\rokko\AppData\Local\Temp\ccKJi3OA.s 			page 2


  31:Drivers/STM32F0xx_HAL_Driver/Src/stm32f0xx_hal_gpio.c ****   type and the IO speed can be selected depending on the VDD value.
  32:Drivers/STM32F0xx_HAL_Driver/Src/stm32f0xx_hal_gpio.c ****        
  33:Drivers/STM32F0xx_HAL_Driver/Src/stm32f0xx_hal_gpio.c ****     (+) The microcontroller IO pins are connected to onboard peripherals/modules through a
  34:Drivers/STM32F0xx_HAL_Driver/Src/stm32f0xx_hal_gpio.c ****         multiplexer that allows only one peripheral alternate function (AF) connected
  35:Drivers/STM32F0xx_HAL_Driver/Src/stm32f0xx_hal_gpio.c ****   to an IO pin at a time. In this way, there can be no conflict between peripherals 
  36:Drivers/STM32F0xx_HAL_Driver/Src/stm32f0xx_hal_gpio.c ****   sharing the same IO pin. 
  37:Drivers/STM32F0xx_HAL_Driver/Src/stm32f0xx_hal_gpio.c ****   
  38:Drivers/STM32F0xx_HAL_Driver/Src/stm32f0xx_hal_gpio.c ****     (+) All ports have external interrupt/event capability. To use external interrupt
  39:Drivers/STM32F0xx_HAL_Driver/Src/stm32f0xx_hal_gpio.c ****   lines, the port must be configured in input mode. All available GPIO pins are 
  40:Drivers/STM32F0xx_HAL_Driver/Src/stm32f0xx_hal_gpio.c ****   connected to the 16 external interrupt/event lines from EXTI0 to EXTI15.
  41:Drivers/STM32F0xx_HAL_Driver/Src/stm32f0xx_hal_gpio.c ****   
  42:Drivers/STM32F0xx_HAL_Driver/Src/stm32f0xx_hal_gpio.c ****     (+) The external interrupt/event controller consists of up to 28 edge detectors
  43:Drivers/STM32F0xx_HAL_Driver/Src/stm32f0xx_hal_gpio.c ****         (16 lines are connected to GPIO) for generating event/interrupt requests (each
  44:Drivers/STM32F0xx_HAL_Driver/Src/stm32f0xx_hal_gpio.c ****         input line can be independently configured to select the type (interrupt or event)
  45:Drivers/STM32F0xx_HAL_Driver/Src/stm32f0xx_hal_gpio.c ****         and the corresponding trigger event (rising or falling or both). Each line can
  46:Drivers/STM32F0xx_HAL_Driver/Src/stm32f0xx_hal_gpio.c ****         also be masked independently.
  47:Drivers/STM32F0xx_HAL_Driver/Src/stm32f0xx_hal_gpio.c ****    
  48:Drivers/STM32F0xx_HAL_Driver/Src/stm32f0xx_hal_gpio.c ****             ##### How to use this driver #####
  49:Drivers/STM32F0xx_HAL_Driver/Src/stm32f0xx_hal_gpio.c ****   ==============================================================================  
  50:Drivers/STM32F0xx_HAL_Driver/Src/stm32f0xx_hal_gpio.c ****   [..]
  51:Drivers/STM32F0xx_HAL_Driver/Src/stm32f0xx_hal_gpio.c ****    (#) Enable the GPIO AHB clock using the following function : __HAL_RCC_GPIOx_CLK_ENABLE(). 
  52:Drivers/STM32F0xx_HAL_Driver/Src/stm32f0xx_hal_gpio.c ****                                     
  53:Drivers/STM32F0xx_HAL_Driver/Src/stm32f0xx_hal_gpio.c ****    (#) Configure the GPIO pin(s) using HAL_GPIO_Init().
  54:Drivers/STM32F0xx_HAL_Driver/Src/stm32f0xx_hal_gpio.c ****        (++) Configure the IO mode using "Mode" member from GPIO_InitTypeDef structure
  55:Drivers/STM32F0xx_HAL_Driver/Src/stm32f0xx_hal_gpio.c ****        (++) Activate Pull-up, Pull-down resistor using "Pull" member from GPIO_InitTypeDef 
  56:Drivers/STM32F0xx_HAL_Driver/Src/stm32f0xx_hal_gpio.c ****             structure.
  57:Drivers/STM32F0xx_HAL_Driver/Src/stm32f0xx_hal_gpio.c ****        (++) In case of Output or alternate function mode selection: the speed is 
  58:Drivers/STM32F0xx_HAL_Driver/Src/stm32f0xx_hal_gpio.c ****              configured through "Speed" member from GPIO_InitTypeDef structure.
  59:Drivers/STM32F0xx_HAL_Driver/Src/stm32f0xx_hal_gpio.c ****         (++) In alternate mode is selection, the alternate function connected to the IO
  60:Drivers/STM32F0xx_HAL_Driver/Src/stm32f0xx_hal_gpio.c ****              is configured through "Alternate" member from GPIO_InitTypeDef structure.
  61:Drivers/STM32F0xx_HAL_Driver/Src/stm32f0xx_hal_gpio.c ****        (++) Analog mode is required when a pin is to be used as ADC channel 
  62:Drivers/STM32F0xx_HAL_Driver/Src/stm32f0xx_hal_gpio.c ****             or DAC output.
  63:Drivers/STM32F0xx_HAL_Driver/Src/stm32f0xx_hal_gpio.c ****        (++) In case of external interrupt/event selection the "Mode" member from 
  64:Drivers/STM32F0xx_HAL_Driver/Src/stm32f0xx_hal_gpio.c ****             GPIO_InitTypeDef structure select the type (interrupt or event) and 
  65:Drivers/STM32F0xx_HAL_Driver/Src/stm32f0xx_hal_gpio.c ****             the corresponding trigger event (rising or falling or both).
  66:Drivers/STM32F0xx_HAL_Driver/Src/stm32f0xx_hal_gpio.c ****   
  67:Drivers/STM32F0xx_HAL_Driver/Src/stm32f0xx_hal_gpio.c ****    (#) In case of external interrupt/event mode selection, configure NVIC IRQ priority 
  68:Drivers/STM32F0xx_HAL_Driver/Src/stm32f0xx_hal_gpio.c ****        mapped to the EXTI line using HAL_NVIC_SetPriority() and enable it using
  69:Drivers/STM32F0xx_HAL_Driver/Src/stm32f0xx_hal_gpio.c ****        HAL_NVIC_EnableIRQ().
  70:Drivers/STM32F0xx_HAL_Driver/Src/stm32f0xx_hal_gpio.c ****   
  71:Drivers/STM32F0xx_HAL_Driver/Src/stm32f0xx_hal_gpio.c ****    (#) HAL_GPIO_DeInit allows to set register values to their reset value. It's also 
  72:Drivers/STM32F0xx_HAL_Driver/Src/stm32f0xx_hal_gpio.c ****        recommended to use it to unconfigure pin which was used as an external interrupt 
  73:Drivers/STM32F0xx_HAL_Driver/Src/stm32f0xx_hal_gpio.c ****        or in event mode. That's the only way to reset corresponding bit in EXTI & SYSCFG 
  74:Drivers/STM32F0xx_HAL_Driver/Src/stm32f0xx_hal_gpio.c ****        registers.
  75:Drivers/STM32F0xx_HAL_Driver/Src/stm32f0xx_hal_gpio.c ****   
  76:Drivers/STM32F0xx_HAL_Driver/Src/stm32f0xx_hal_gpio.c ****    (#) To get the level of a pin configured in input mode use HAL_GPIO_ReadPin().
  77:Drivers/STM32F0xx_HAL_Driver/Src/stm32f0xx_hal_gpio.c ****   
  78:Drivers/STM32F0xx_HAL_Driver/Src/stm32f0xx_hal_gpio.c ****    (#) To set/reset the level of a pin configured in output mode use 
  79:Drivers/STM32F0xx_HAL_Driver/Src/stm32f0xx_hal_gpio.c ****        HAL_GPIO_WritePin()/HAL_GPIO_TogglePin().
  80:Drivers/STM32F0xx_HAL_Driver/Src/stm32f0xx_hal_gpio.c ****   
  81:Drivers/STM32F0xx_HAL_Driver/Src/stm32f0xx_hal_gpio.c ****    (#) To lock pin configuration until next reset use HAL_GPIO_LockPin().
  82:Drivers/STM32F0xx_HAL_Driver/Src/stm32f0xx_hal_gpio.c ****   
  83:Drivers/STM32F0xx_HAL_Driver/Src/stm32f0xx_hal_gpio.c ****    (#) During and just after reset, the alternate functions are not 
  84:Drivers/STM32F0xx_HAL_Driver/Src/stm32f0xx_hal_gpio.c ****        active and the GPIO pins are configured in input floating mode (except JTAG
  85:Drivers/STM32F0xx_HAL_Driver/Src/stm32f0xx_hal_gpio.c ****        pins).
  86:Drivers/STM32F0xx_HAL_Driver/Src/stm32f0xx_hal_gpio.c ****   
  87:Drivers/STM32F0xx_HAL_Driver/Src/stm32f0xx_hal_gpio.c ****    (#) The LSE oscillator pins OSC32_IN and OSC32_OUT can be used as general purpose 
ARM GAS  C:\Users\rokko\AppData\Local\Temp\ccKJi3OA.s 			page 3


  88:Drivers/STM32F0xx_HAL_Driver/Src/stm32f0xx_hal_gpio.c ****        (PC14 and PC15, respectively) when the LSE oscillator is off. The LSE has 
  89:Drivers/STM32F0xx_HAL_Driver/Src/stm32f0xx_hal_gpio.c ****        priority over the GPIO function.
  90:Drivers/STM32F0xx_HAL_Driver/Src/stm32f0xx_hal_gpio.c ****   
  91:Drivers/STM32F0xx_HAL_Driver/Src/stm32f0xx_hal_gpio.c ****    (#) The HSE oscillator pins OSC_IN/OSC_OUT can be used as 
  92:Drivers/STM32F0xx_HAL_Driver/Src/stm32f0xx_hal_gpio.c ****         general purpose PF0 and PF1, respectively, when the HSE oscillator is off.
  93:Drivers/STM32F0xx_HAL_Driver/Src/stm32f0xx_hal_gpio.c ****        The HSE has priority over the GPIO function.
  94:Drivers/STM32F0xx_HAL_Driver/Src/stm32f0xx_hal_gpio.c ****   
  95:Drivers/STM32F0xx_HAL_Driver/Src/stm32f0xx_hal_gpio.c ****   @endverbatim
  96:Drivers/STM32F0xx_HAL_Driver/Src/stm32f0xx_hal_gpio.c ****   ******************************************************************************
  97:Drivers/STM32F0xx_HAL_Driver/Src/stm32f0xx_hal_gpio.c ****   * @attention
  98:Drivers/STM32F0xx_HAL_Driver/Src/stm32f0xx_hal_gpio.c ****   *
  99:Drivers/STM32F0xx_HAL_Driver/Src/stm32f0xx_hal_gpio.c ****   * <h2><center>&copy; Copyright (c) 2016 STMicroelectronics.
 100:Drivers/STM32F0xx_HAL_Driver/Src/stm32f0xx_hal_gpio.c ****   * All rights reserved.</center></h2>
 101:Drivers/STM32F0xx_HAL_Driver/Src/stm32f0xx_hal_gpio.c ****   *
 102:Drivers/STM32F0xx_HAL_Driver/Src/stm32f0xx_hal_gpio.c ****   * This software component is licensed by ST under BSD 3-Clause license,
 103:Drivers/STM32F0xx_HAL_Driver/Src/stm32f0xx_hal_gpio.c ****   * the "License"; You may not use this file except in compliance with the
 104:Drivers/STM32F0xx_HAL_Driver/Src/stm32f0xx_hal_gpio.c ****   * License. You may obtain a copy of the License at:
 105:Drivers/STM32F0xx_HAL_Driver/Src/stm32f0xx_hal_gpio.c ****   *                        opensource.org/licenses/BSD-3-Clause
 106:Drivers/STM32F0xx_HAL_Driver/Src/stm32f0xx_hal_gpio.c ****   *
 107:Drivers/STM32F0xx_HAL_Driver/Src/stm32f0xx_hal_gpio.c ****   ******************************************************************************
 108:Drivers/STM32F0xx_HAL_Driver/Src/stm32f0xx_hal_gpio.c ****   */
 109:Drivers/STM32F0xx_HAL_Driver/Src/stm32f0xx_hal_gpio.c **** 
 110:Drivers/STM32F0xx_HAL_Driver/Src/stm32f0xx_hal_gpio.c **** /* Includes ------------------------------------------------------------------*/
 111:Drivers/STM32F0xx_HAL_Driver/Src/stm32f0xx_hal_gpio.c **** #include "stm32f0xx_hal.h"
 112:Drivers/STM32F0xx_HAL_Driver/Src/stm32f0xx_hal_gpio.c **** 
 113:Drivers/STM32F0xx_HAL_Driver/Src/stm32f0xx_hal_gpio.c **** /** @addtogroup STM32F0xx_HAL_Driver
 114:Drivers/STM32F0xx_HAL_Driver/Src/stm32f0xx_hal_gpio.c ****   * @{
 115:Drivers/STM32F0xx_HAL_Driver/Src/stm32f0xx_hal_gpio.c ****   */
 116:Drivers/STM32F0xx_HAL_Driver/Src/stm32f0xx_hal_gpio.c **** 
 117:Drivers/STM32F0xx_HAL_Driver/Src/stm32f0xx_hal_gpio.c **** /** @defgroup GPIO GPIO
 118:Drivers/STM32F0xx_HAL_Driver/Src/stm32f0xx_hal_gpio.c ****   * @brief GPIO HAL module driver
 119:Drivers/STM32F0xx_HAL_Driver/Src/stm32f0xx_hal_gpio.c ****   * @{
 120:Drivers/STM32F0xx_HAL_Driver/Src/stm32f0xx_hal_gpio.c ****   */
 121:Drivers/STM32F0xx_HAL_Driver/Src/stm32f0xx_hal_gpio.c **** 
 122:Drivers/STM32F0xx_HAL_Driver/Src/stm32f0xx_hal_gpio.c **** /** MISRA C:2012 deviation rule has been granted for following rules:
 123:Drivers/STM32F0xx_HAL_Driver/Src/stm32f0xx_hal_gpio.c ****   * Rule-18.1_d - Medium: Array pointer `GPIOx' is accessed with index [..,..]
 124:Drivers/STM32F0xx_HAL_Driver/Src/stm32f0xx_hal_gpio.c ****   * which may be out of array bounds [..,UNKNOWN] in following APIs:
 125:Drivers/STM32F0xx_HAL_Driver/Src/stm32f0xx_hal_gpio.c ****   * HAL_GPIO_Init
 126:Drivers/STM32F0xx_HAL_Driver/Src/stm32f0xx_hal_gpio.c ****   * HAL_GPIO_DeInit
 127:Drivers/STM32F0xx_HAL_Driver/Src/stm32f0xx_hal_gpio.c ****   */
 128:Drivers/STM32F0xx_HAL_Driver/Src/stm32f0xx_hal_gpio.c **** 
 129:Drivers/STM32F0xx_HAL_Driver/Src/stm32f0xx_hal_gpio.c **** #ifdef HAL_GPIO_MODULE_ENABLED
 130:Drivers/STM32F0xx_HAL_Driver/Src/stm32f0xx_hal_gpio.c **** 
 131:Drivers/STM32F0xx_HAL_Driver/Src/stm32f0xx_hal_gpio.c **** /* Private typedef -----------------------------------------------------------*/
 132:Drivers/STM32F0xx_HAL_Driver/Src/stm32f0xx_hal_gpio.c **** /* Private defines -----------------------------------------------------------*/
 133:Drivers/STM32F0xx_HAL_Driver/Src/stm32f0xx_hal_gpio.c **** /** @addtogroup GPIO_Private_Constants GPIO Private Constants
 134:Drivers/STM32F0xx_HAL_Driver/Src/stm32f0xx_hal_gpio.c ****   * @{
 135:Drivers/STM32F0xx_HAL_Driver/Src/stm32f0xx_hal_gpio.c ****   */
 136:Drivers/STM32F0xx_HAL_Driver/Src/stm32f0xx_hal_gpio.c **** #define GPIO_NUMBER           16U
 137:Drivers/STM32F0xx_HAL_Driver/Src/stm32f0xx_hal_gpio.c **** /**
 138:Drivers/STM32F0xx_HAL_Driver/Src/stm32f0xx_hal_gpio.c ****   * @}
 139:Drivers/STM32F0xx_HAL_Driver/Src/stm32f0xx_hal_gpio.c ****   */
 140:Drivers/STM32F0xx_HAL_Driver/Src/stm32f0xx_hal_gpio.c **** 
 141:Drivers/STM32F0xx_HAL_Driver/Src/stm32f0xx_hal_gpio.c **** /* Private macros ------------------------------------------------------------*/
 142:Drivers/STM32F0xx_HAL_Driver/Src/stm32f0xx_hal_gpio.c **** /* Private variables ---------------------------------------------------------*/
 143:Drivers/STM32F0xx_HAL_Driver/Src/stm32f0xx_hal_gpio.c **** /* Private function prototypes -----------------------------------------------*/
 144:Drivers/STM32F0xx_HAL_Driver/Src/stm32f0xx_hal_gpio.c **** /* Exported functions --------------------------------------------------------*/
ARM GAS  C:\Users\rokko\AppData\Local\Temp\ccKJi3OA.s 			page 4


 145:Drivers/STM32F0xx_HAL_Driver/Src/stm32f0xx_hal_gpio.c **** 
 146:Drivers/STM32F0xx_HAL_Driver/Src/stm32f0xx_hal_gpio.c **** /** @defgroup GPIO_Exported_Functions GPIO Exported Functions
 147:Drivers/STM32F0xx_HAL_Driver/Src/stm32f0xx_hal_gpio.c ****   * @{
 148:Drivers/STM32F0xx_HAL_Driver/Src/stm32f0xx_hal_gpio.c ****   */
 149:Drivers/STM32F0xx_HAL_Driver/Src/stm32f0xx_hal_gpio.c **** 
 150:Drivers/STM32F0xx_HAL_Driver/Src/stm32f0xx_hal_gpio.c **** /** @defgroup GPIO_Exported_Functions_Group1 Initialization/de-initialization functions 
 151:Drivers/STM32F0xx_HAL_Driver/Src/stm32f0xx_hal_gpio.c ****  *  @brief    Initialization and Configuration functions 
 152:Drivers/STM32F0xx_HAL_Driver/Src/stm32f0xx_hal_gpio.c ****  *
 153:Drivers/STM32F0xx_HAL_Driver/Src/stm32f0xx_hal_gpio.c **** @verbatim    
 154:Drivers/STM32F0xx_HAL_Driver/Src/stm32f0xx_hal_gpio.c ****  ===============================================================================
 155:Drivers/STM32F0xx_HAL_Driver/Src/stm32f0xx_hal_gpio.c ****               ##### Initialization and de-initialization functions #####
 156:Drivers/STM32F0xx_HAL_Driver/Src/stm32f0xx_hal_gpio.c ****  ===============================================================================
 157:Drivers/STM32F0xx_HAL_Driver/Src/stm32f0xx_hal_gpio.c ****  
 158:Drivers/STM32F0xx_HAL_Driver/Src/stm32f0xx_hal_gpio.c **** @endverbatim
 159:Drivers/STM32F0xx_HAL_Driver/Src/stm32f0xx_hal_gpio.c ****   * @{
 160:Drivers/STM32F0xx_HAL_Driver/Src/stm32f0xx_hal_gpio.c ****   */
 161:Drivers/STM32F0xx_HAL_Driver/Src/stm32f0xx_hal_gpio.c **** 
 162:Drivers/STM32F0xx_HAL_Driver/Src/stm32f0xx_hal_gpio.c **** /**
 163:Drivers/STM32F0xx_HAL_Driver/Src/stm32f0xx_hal_gpio.c ****   * @brief  Initialize the GPIOx peripheral according to the specified parameters in the GPIO_Init.
 164:Drivers/STM32F0xx_HAL_Driver/Src/stm32f0xx_hal_gpio.c ****   * @param  GPIOx where x can be (A..F) to select the GPIO peripheral for STM32F0 family
 165:Drivers/STM32F0xx_HAL_Driver/Src/stm32f0xx_hal_gpio.c ****   * @param  GPIO_Init pointer to a GPIO_InitTypeDef structure that contains
 166:Drivers/STM32F0xx_HAL_Driver/Src/stm32f0xx_hal_gpio.c ****   *         the configuration information for the specified GPIO peripheral.
 167:Drivers/STM32F0xx_HAL_Driver/Src/stm32f0xx_hal_gpio.c ****   * @retval None
 168:Drivers/STM32F0xx_HAL_Driver/Src/stm32f0xx_hal_gpio.c ****   */
 169:Drivers/STM32F0xx_HAL_Driver/Src/stm32f0xx_hal_gpio.c **** void HAL_GPIO_Init(GPIO_TypeDef  *GPIOx, GPIO_InitTypeDef *GPIO_Init)
 170:Drivers/STM32F0xx_HAL_Driver/Src/stm32f0xx_hal_gpio.c **** {
  29              		.loc 1 170 1 view -0
  30              		.cfi_startproc
  31              		@ args = 0, pretend = 0, frame = 24
  32              		@ frame_needed = 0, uses_anonymous_args = 0
 171:Drivers/STM32F0xx_HAL_Driver/Src/stm32f0xx_hal_gpio.c ****   uint32_t position = 0x00u;
  33              		.loc 1 171 3 view .LVU1
 172:Drivers/STM32F0xx_HAL_Driver/Src/stm32f0xx_hal_gpio.c ****   uint32_t iocurrent;
  34              		.loc 1 172 3 view .LVU2
 173:Drivers/STM32F0xx_HAL_Driver/Src/stm32f0xx_hal_gpio.c ****   uint32_t temp;
  35              		.loc 1 173 3 view .LVU3
 174:Drivers/STM32F0xx_HAL_Driver/Src/stm32f0xx_hal_gpio.c **** 
 175:Drivers/STM32F0xx_HAL_Driver/Src/stm32f0xx_hal_gpio.c ****   /* Check the parameters */
 176:Drivers/STM32F0xx_HAL_Driver/Src/stm32f0xx_hal_gpio.c ****   assert_param(IS_GPIO_ALL_INSTANCE(GPIOx));
  36              		.loc 1 176 3 view .LVU4
 177:Drivers/STM32F0xx_HAL_Driver/Src/stm32f0xx_hal_gpio.c ****   assert_param(IS_GPIO_PIN(GPIO_Init->Pin));
  37              		.loc 1 177 3 view .LVU5
 178:Drivers/STM32F0xx_HAL_Driver/Src/stm32f0xx_hal_gpio.c ****   assert_param(IS_GPIO_MODE(GPIO_Init->Mode));
  38              		.loc 1 178 3 view .LVU6
 179:Drivers/STM32F0xx_HAL_Driver/Src/stm32f0xx_hal_gpio.c **** 
 180:Drivers/STM32F0xx_HAL_Driver/Src/stm32f0xx_hal_gpio.c ****   /* Configure the port pins */
 181:Drivers/STM32F0xx_HAL_Driver/Src/stm32f0xx_hal_gpio.c ****   while (((GPIO_Init->Pin) >> position) != 0x00u)
  39              		.loc 1 181 3 view .LVU7
  40              		.loc 1 181 9 view .LVU8
 170:Drivers/STM32F0xx_HAL_Driver/Src/stm32f0xx_hal_gpio.c ****   uint32_t position = 0x00u;
  41              		.loc 1 170 1 is_stmt 0 view .LVU9
  42 0000 F0B5     		push	{r4, r5, r6, r7, lr}
  43              	.LCFI0:
  44              		.cfi_def_cfa_offset 20
  45              		.cfi_offset 4, -20
  46              		.cfi_offset 5, -16
  47              		.cfi_offset 6, -12
ARM GAS  C:\Users\rokko\AppData\Local\Temp\ccKJi3OA.s 			page 5


  48              		.cfi_offset 7, -8
  49              		.cfi_offset 14, -4
  50 0002 DE46     		mov	lr, fp
  51 0004 5746     		mov	r7, r10
  52 0006 4E46     		mov	r6, r9
  53 0008 4546     		mov	r5, r8
  54 000a E0B5     		push	{r5, r6, r7, lr}
  55              	.LCFI1:
  56              		.cfi_def_cfa_offset 36
  57              		.cfi_offset 8, -36
  58              		.cfi_offset 9, -32
  59              		.cfi_offset 10, -28
  60              		.cfi_offset 11, -24
  61              		.loc 1 181 21 view .LVU10
  62 000c 0C68     		ldr	r4, [r1]
 170:Drivers/STM32F0xx_HAL_Driver/Src/stm32f0xx_hal_gpio.c ****   uint32_t position = 0x00u;
  63              		.loc 1 170 1 view .LVU11
  64 000e 8C46     		mov	ip, r1
  65              		.loc 1 181 9 view .LVU12
  66 0010 0022     		movs	r2, #0
 171:Drivers/STM32F0xx_HAL_Driver/Src/stm32f0xx_hal_gpio.c ****   uint32_t iocurrent;
  67              		.loc 1 171 12 view .LVU13
  68 0012 0023     		movs	r3, #0
 170:Drivers/STM32F0xx_HAL_Driver/Src/stm32f0xx_hal_gpio.c ****   uint32_t position = 0x00u;
  69              		.loc 1 170 1 view .LVU14
  70 0014 87B0     		sub	sp, sp, #28
  71              	.LCFI2:
  72              		.cfi_def_cfa_offset 64
  73              		.loc 1 181 9 view .LVU15
  74 0016 002C     		cmp	r4, #0
  75 0018 00D1     		bne	.LCB43
  76 001a 87E0     		b	.L1	@long jump
  77              	.LCB43:
  78              	.LBB2:
 182:Drivers/STM32F0xx_HAL_Driver/Src/stm32f0xx_hal_gpio.c ****   {
 183:Drivers/STM32F0xx_HAL_Driver/Src/stm32f0xx_hal_gpio.c ****     /* Get current io position */
 184:Drivers/STM32F0xx_HAL_Driver/Src/stm32f0xx_hal_gpio.c ****     iocurrent = (GPIO_Init->Pin) & (1uL << position);
 185:Drivers/STM32F0xx_HAL_Driver/Src/stm32f0xx_hal_gpio.c **** 
 186:Drivers/STM32F0xx_HAL_Driver/Src/stm32f0xx_hal_gpio.c ****     if (iocurrent != 0x00u)
 187:Drivers/STM32F0xx_HAL_Driver/Src/stm32f0xx_hal_gpio.c ****     {
 188:Drivers/STM32F0xx_HAL_Driver/Src/stm32f0xx_hal_gpio.c ****       /*--------------------- GPIO Mode Configuration ------------------------*/
 189:Drivers/STM32F0xx_HAL_Driver/Src/stm32f0xx_hal_gpio.c ****       /* In case of Output or Alternate function mode selection */
 190:Drivers/STM32F0xx_HAL_Driver/Src/stm32f0xx_hal_gpio.c ****       if(((GPIO_Init->Mode & GPIO_MODE) == MODE_OUTPUT) ||
 191:Drivers/STM32F0xx_HAL_Driver/Src/stm32f0xx_hal_gpio.c ****          ((GPIO_Init->Mode & GPIO_MODE) == MODE_AF))
 192:Drivers/STM32F0xx_HAL_Driver/Src/stm32f0xx_hal_gpio.c ****       {
 193:Drivers/STM32F0xx_HAL_Driver/Src/stm32f0xx_hal_gpio.c ****         /* Check the Speed parameter */
 194:Drivers/STM32F0xx_HAL_Driver/Src/stm32f0xx_hal_gpio.c ****         assert_param(IS_GPIO_SPEED(GPIO_Init->Speed));
 195:Drivers/STM32F0xx_HAL_Driver/Src/stm32f0xx_hal_gpio.c ****         /* Configure the IO Speed */
 196:Drivers/STM32F0xx_HAL_Driver/Src/stm32f0xx_hal_gpio.c ****         temp = GPIOx->OSPEEDR;
 197:Drivers/STM32F0xx_HAL_Driver/Src/stm32f0xx_hal_gpio.c ****         temp &= ~(GPIO_OSPEEDER_OSPEEDR0 << (position * 2u));
 198:Drivers/STM32F0xx_HAL_Driver/Src/stm32f0xx_hal_gpio.c ****         temp |= (GPIO_Init->Speed << (position * 2u));
 199:Drivers/STM32F0xx_HAL_Driver/Src/stm32f0xx_hal_gpio.c ****         GPIOx->OSPEEDR = temp;
 200:Drivers/STM32F0xx_HAL_Driver/Src/stm32f0xx_hal_gpio.c **** 
 201:Drivers/STM32F0xx_HAL_Driver/Src/stm32f0xx_hal_gpio.c ****         /* Configure the IO Output Type */
 202:Drivers/STM32F0xx_HAL_Driver/Src/stm32f0xx_hal_gpio.c ****         temp = GPIOx->OTYPER;
 203:Drivers/STM32F0xx_HAL_Driver/Src/stm32f0xx_hal_gpio.c ****         temp &= ~(GPIO_OTYPER_OT_0 << position) ;
 204:Drivers/STM32F0xx_HAL_Driver/Src/stm32f0xx_hal_gpio.c ****         temp |= (((GPIO_Init->Mode & OUTPUT_TYPE) >> OUTPUT_TYPE_Pos) << position);
ARM GAS  C:\Users\rokko\AppData\Local\Temp\ccKJi3OA.s 			page 6


 205:Drivers/STM32F0xx_HAL_Driver/Src/stm32f0xx_hal_gpio.c ****         GPIOx->OTYPER = temp;
 206:Drivers/STM32F0xx_HAL_Driver/Src/stm32f0xx_hal_gpio.c ****       }
 207:Drivers/STM32F0xx_HAL_Driver/Src/stm32f0xx_hal_gpio.c ****       
 208:Drivers/STM32F0xx_HAL_Driver/Src/stm32f0xx_hal_gpio.c ****       if((GPIO_Init->Mode & GPIO_MODE) != MODE_ANALOG)
 209:Drivers/STM32F0xx_HAL_Driver/Src/stm32f0xx_hal_gpio.c ****       {
 210:Drivers/STM32F0xx_HAL_Driver/Src/stm32f0xx_hal_gpio.c ****         /* Check the Pull parameter */
 211:Drivers/STM32F0xx_HAL_Driver/Src/stm32f0xx_hal_gpio.c ****         assert_param(IS_GPIO_PULL(GPIO_Init->Pull));
 212:Drivers/STM32F0xx_HAL_Driver/Src/stm32f0xx_hal_gpio.c **** 
 213:Drivers/STM32F0xx_HAL_Driver/Src/stm32f0xx_hal_gpio.c ****         /* Activate the Pull-up or Pull down resistor for the current IO */
 214:Drivers/STM32F0xx_HAL_Driver/Src/stm32f0xx_hal_gpio.c ****         temp = GPIOx->PUPDR;
 215:Drivers/STM32F0xx_HAL_Driver/Src/stm32f0xx_hal_gpio.c ****         temp &= ~(GPIO_PUPDR_PUPDR0 << (position * 2u));
 216:Drivers/STM32F0xx_HAL_Driver/Src/stm32f0xx_hal_gpio.c ****         temp |= ((GPIO_Init->Pull) << (position * 2u));
 217:Drivers/STM32F0xx_HAL_Driver/Src/stm32f0xx_hal_gpio.c ****         GPIOx->PUPDR = temp;
 218:Drivers/STM32F0xx_HAL_Driver/Src/stm32f0xx_hal_gpio.c ****       }
 219:Drivers/STM32F0xx_HAL_Driver/Src/stm32f0xx_hal_gpio.c **** 
 220:Drivers/STM32F0xx_HAL_Driver/Src/stm32f0xx_hal_gpio.c ****       /* In case of Alternate function mode selection */
 221:Drivers/STM32F0xx_HAL_Driver/Src/stm32f0xx_hal_gpio.c ****       if((GPIO_Init->Mode & GPIO_MODE) == MODE_AF)
 222:Drivers/STM32F0xx_HAL_Driver/Src/stm32f0xx_hal_gpio.c ****       {
 223:Drivers/STM32F0xx_HAL_Driver/Src/stm32f0xx_hal_gpio.c ****         /* Check the Alternate function parameters */
 224:Drivers/STM32F0xx_HAL_Driver/Src/stm32f0xx_hal_gpio.c ****         assert_param(IS_GPIO_AF_INSTANCE(GPIOx));
 225:Drivers/STM32F0xx_HAL_Driver/Src/stm32f0xx_hal_gpio.c ****         assert_param(IS_GPIO_AF(GPIO_Init->Alternate));
 226:Drivers/STM32F0xx_HAL_Driver/Src/stm32f0xx_hal_gpio.c **** 
 227:Drivers/STM32F0xx_HAL_Driver/Src/stm32f0xx_hal_gpio.c ****         /* Configure Alternate function mapped with the current IO */
 228:Drivers/STM32F0xx_HAL_Driver/Src/stm32f0xx_hal_gpio.c ****         temp = GPIOx->AFR[position >> 3u];
 229:Drivers/STM32F0xx_HAL_Driver/Src/stm32f0xx_hal_gpio.c ****         temp &= ~(0xFu << ((position & 0x07u) * 4u));
 230:Drivers/STM32F0xx_HAL_Driver/Src/stm32f0xx_hal_gpio.c ****         temp |= ((GPIO_Init->Alternate) << ((position & 0x07u) * 4u));
 231:Drivers/STM32F0xx_HAL_Driver/Src/stm32f0xx_hal_gpio.c ****         GPIOx->AFR[position >> 3u] = temp;
 232:Drivers/STM32F0xx_HAL_Driver/Src/stm32f0xx_hal_gpio.c ****       }
 233:Drivers/STM32F0xx_HAL_Driver/Src/stm32f0xx_hal_gpio.c **** 
 234:Drivers/STM32F0xx_HAL_Driver/Src/stm32f0xx_hal_gpio.c ****       /* Configure IO Direction mode (Input, Output, Alternate or Analog) */
 235:Drivers/STM32F0xx_HAL_Driver/Src/stm32f0xx_hal_gpio.c ****       temp = GPIOx->MODER;
 236:Drivers/STM32F0xx_HAL_Driver/Src/stm32f0xx_hal_gpio.c ****       temp &= ~(GPIO_MODER_MODER0 << (position * 2u));
 237:Drivers/STM32F0xx_HAL_Driver/Src/stm32f0xx_hal_gpio.c ****       temp |= ((GPIO_Init->Mode & GPIO_MODE) << (position * 2u));
 238:Drivers/STM32F0xx_HAL_Driver/Src/stm32f0xx_hal_gpio.c ****       GPIOx->MODER = temp;
 239:Drivers/STM32F0xx_HAL_Driver/Src/stm32f0xx_hal_gpio.c **** 
 240:Drivers/STM32F0xx_HAL_Driver/Src/stm32f0xx_hal_gpio.c ****       /*--------------------- EXTI Mode Configuration ------------------------*/
 241:Drivers/STM32F0xx_HAL_Driver/Src/stm32f0xx_hal_gpio.c ****       /* Configure the External Interrupt or event for the current IO */
 242:Drivers/STM32F0xx_HAL_Driver/Src/stm32f0xx_hal_gpio.c ****       if((GPIO_Init->Mode & EXTI_MODE) != 0x00u)
 243:Drivers/STM32F0xx_HAL_Driver/Src/stm32f0xx_hal_gpio.c ****       {
 244:Drivers/STM32F0xx_HAL_Driver/Src/stm32f0xx_hal_gpio.c ****         /* Enable SYSCFG Clock */
 245:Drivers/STM32F0xx_HAL_Driver/Src/stm32f0xx_hal_gpio.c ****         __HAL_RCC_SYSCFG_CLK_ENABLE();
  79              		.loc 1 245 9 view .LVU16
  80 001c 8049     		ldr	r1, .L35
  81              	.LVL1:
  82              		.loc 1 245 9 view .LVU17
  83              	.LBE2:
 246:Drivers/STM32F0xx_HAL_Driver/Src/stm32f0xx_hal_gpio.c **** 
 247:Drivers/STM32F0xx_HAL_Driver/Src/stm32f0xx_hal_gpio.c ****         temp = SYSCFG->EXTICR[position >> 2u];
 248:Drivers/STM32F0xx_HAL_Driver/Src/stm32f0xx_hal_gpio.c ****         temp &= ~(0x0FuL << (4u * (position & 0x03u)));
 249:Drivers/STM32F0xx_HAL_Driver/Src/stm32f0xx_hal_gpio.c ****         temp |= (GPIO_GET_INDEX(GPIOx) << (4u * (position & 0x03u)));
 250:Drivers/STM32F0xx_HAL_Driver/Src/stm32f0xx_hal_gpio.c ****         SYSCFG->EXTICR[position >> 2u] = temp;
 251:Drivers/STM32F0xx_HAL_Driver/Src/stm32f0xx_hal_gpio.c **** 
 252:Drivers/STM32F0xx_HAL_Driver/Src/stm32f0xx_hal_gpio.c ****         /* Clear EXTI line configuration */
 253:Drivers/STM32F0xx_HAL_Driver/Src/stm32f0xx_hal_gpio.c ****         temp = EXTI->IMR;
  84              		.loc 1 253 14 view .LVU18
  85 001e 814F     		ldr	r7, .L35+4
  86              	.LBB3:
ARM GAS  C:\Users\rokko\AppData\Local\Temp\ccKJi3OA.s 			page 7


 245:Drivers/STM32F0xx_HAL_Driver/Src/stm32f0xx_hal_gpio.c **** 
  87              		.loc 1 245 9 view .LVU19
  88 0020 8B46     		mov	fp, r1
  89              	.LBE3:
 254:Drivers/STM32F0xx_HAL_Driver/Src/stm32f0xx_hal_gpio.c ****         temp &= ~(iocurrent);
 255:Drivers/STM32F0xx_HAL_Driver/Src/stm32f0xx_hal_gpio.c ****         if((GPIO_Init->Mode & EXTI_IT) != 0x00u)
  90              		.loc 1 255 29 view .LVU20
  91 0022 6146     		mov	r1, ip
  92 0024 0391     		str	r1, [sp, #12]
  93              	.LVL2:
  94              	.L2:
 184:Drivers/STM32F0xx_HAL_Driver/Src/stm32f0xx_hal_gpio.c **** 
  95              		.loc 1 184 5 is_stmt 1 view .LVU21
 184:Drivers/STM32F0xx_HAL_Driver/Src/stm32f0xx_hal_gpio.c **** 
  96              		.loc 1 184 41 is_stmt 0 view .LVU22
  97 0026 0125     		movs	r5, #1
 184:Drivers/STM32F0xx_HAL_Driver/Src/stm32f0xx_hal_gpio.c **** 
  98              		.loc 1 184 15 view .LVU23
  99 0028 2100     		movs	r1, r4
 184:Drivers/STM32F0xx_HAL_Driver/Src/stm32f0xx_hal_gpio.c **** 
 100              		.loc 1 184 41 view .LVU24
 101 002a 9D40     		lsls	r5, r5, r3
 184:Drivers/STM32F0xx_HAL_Driver/Src/stm32f0xx_hal_gpio.c **** 
 102              		.loc 1 184 15 view .LVU25
 103 002c 2940     		ands	r1, r5
 104 002e 0191     		str	r1, [sp, #4]
 105              	.LVL3:
 186:Drivers/STM32F0xx_HAL_Driver/Src/stm32f0xx_hal_gpio.c ****     {
 106              		.loc 1 186 5 is_stmt 1 view .LVU26
 186:Drivers/STM32F0xx_HAL_Driver/Src/stm32f0xx_hal_gpio.c ****     {
 107              		.loc 1 186 8 is_stmt 0 view .LVU27
 108 0030 2C42     		tst	r4, r5
 109 0032 74D0     		beq	.L4
 190:Drivers/STM32F0xx_HAL_Driver/Src/stm32f0xx_hal_gpio.c ****          ((GPIO_Init->Mode & GPIO_MODE) == MODE_AF))
 110              		.loc 1 190 7 is_stmt 1 view .LVU28
 190:Drivers/STM32F0xx_HAL_Driver/Src/stm32f0xx_hal_gpio.c ****          ((GPIO_Init->Mode & GPIO_MODE) == MODE_AF))
 111              		.loc 1 190 21 is_stmt 0 view .LVU29
 112 0034 0399     		ldr	r1, [sp, #12]
 113              	.LVL4:
 190:Drivers/STM32F0xx_HAL_Driver/Src/stm32f0xx_hal_gpio.c ****          ((GPIO_Init->Mode & GPIO_MODE) == MODE_AF))
 114              		.loc 1 190 21 view .LVU30
 115 0036 4968     		ldr	r1, [r1, #4]
 116 0038 8A46     		mov	r10, r1
 190:Drivers/STM32F0xx_HAL_Driver/Src/stm32f0xx_hal_gpio.c ****          ((GPIO_Init->Mode & GPIO_MODE) == MODE_AF))
 117              		.loc 1 190 28 view .LVU31
 118 003a 0321     		movs	r1, #3
 119 003c 5646     		mov	r6, r10
 120 003e 3140     		ands	r1, r6
 121 0040 8C46     		mov	ip, r1
 190:Drivers/STM32F0xx_HAL_Driver/Src/stm32f0xx_hal_gpio.c ****          ((GPIO_Init->Mode & GPIO_MODE) == MODE_AF))
 122              		.loc 1 190 57 view .LVU32
 123 0042 0139     		subs	r1, r1, #1
 190:Drivers/STM32F0xx_HAL_Driver/Src/stm32f0xx_hal_gpio.c ****          ((GPIO_Init->Mode & GPIO_MODE) == MODE_AF))
 124              		.loc 1 190 9 view .LVU33
 125 0044 0129     		cmp	r1, #1
 126 0046 00D8     		bhi	.LCB87
 127 0048 77E0     		b	.L31	@long jump
ARM GAS  C:\Users\rokko\AppData\Local\Temp\ccKJi3OA.s 			page 8


 128              	.LCB87:
 208:Drivers/STM32F0xx_HAL_Driver/Src/stm32f0xx_hal_gpio.c ****       {
 129              		.loc 1 208 7 is_stmt 1 view .LVU34
 208:Drivers/STM32F0xx_HAL_Driver/Src/stm32f0xx_hal_gpio.c ****       {
 130              		.loc 1 208 9 is_stmt 0 view .LVU35
 131 004a 6146     		mov	r1, ip
 132 004c 0329     		cmp	r1, #3
 133 004e 00D0     		beq	.LCB91
 134 0050 BCE0     		b	.L7	@long jump
 135              	.LCB91:
 197:Drivers/STM32F0xx_HAL_Driver/Src/stm32f0xx_hal_gpio.c ****         temp |= (GPIO_Init->Speed << (position * 2u));
 136              		.loc 1 197 42 view .LVU36
 137 0052 6546     		mov	r5, ip
 138 0054 9540     		lsls	r5, r5, r2
 197:Drivers/STM32F0xx_HAL_Driver/Src/stm32f0xx_hal_gpio.c ****         temp |= (GPIO_Init->Speed << (position * 2u));
 139              		.loc 1 197 17 view .LVU37
 140 0056 E943     		mvns	r1, r5
 141 0058 0291     		str	r1, [sp, #8]
 142              	.L8:
 235:Drivers/STM32F0xx_HAL_Driver/Src/stm32f0xx_hal_gpio.c ****       temp &= ~(GPIO_MODER_MODER0 << (position * 2u));
 143              		.loc 1 235 7 is_stmt 1 view .LVU38
 235:Drivers/STM32F0xx_HAL_Driver/Src/stm32f0xx_hal_gpio.c ****       temp &= ~(GPIO_MODER_MODER0 << (position * 2u));
 144              		.loc 1 235 12 is_stmt 0 view .LVU39
 145 005a 0668     		ldr	r6, [r0]
 146              	.LVL5:
 236:Drivers/STM32F0xx_HAL_Driver/Src/stm32f0xx_hal_gpio.c ****       temp |= ((GPIO_Init->Mode & GPIO_MODE) << (position * 2u));
 147              		.loc 1 236 7 is_stmt 1 view .LVU40
 236:Drivers/STM32F0xx_HAL_Driver/Src/stm32f0xx_hal_gpio.c ****       temp |= ((GPIO_Init->Mode & GPIO_MODE) << (position * 2u));
 148              		.loc 1 236 12 is_stmt 0 view .LVU41
 149 005c 0299     		ldr	r1, [sp, #8]
 150 005e 3140     		ands	r1, r6
 151              	.LVL6:
 237:Drivers/STM32F0xx_HAL_Driver/Src/stm32f0xx_hal_gpio.c ****       GPIOx->MODER = temp;
 152              		.loc 1 237 7 is_stmt 1 view .LVU42
 237:Drivers/STM32F0xx_HAL_Driver/Src/stm32f0xx_hal_gpio.c ****       GPIOx->MODER = temp;
 153              		.loc 1 237 12 is_stmt 0 view .LVU43
 154 0060 2943     		orrs	r1, r5
 155              	.LVL7:
 238:Drivers/STM32F0xx_HAL_Driver/Src/stm32f0xx_hal_gpio.c **** 
 156              		.loc 1 238 7 is_stmt 1 view .LVU44
 242:Drivers/STM32F0xx_HAL_Driver/Src/stm32f0xx_hal_gpio.c ****       {
 157              		.loc 1 242 9 is_stmt 0 view .LVU45
 158 0062 C025     		movs	r5, #192
 238:Drivers/STM32F0xx_HAL_Driver/Src/stm32f0xx_hal_gpio.c **** 
 159              		.loc 1 238 20 view .LVU46
 160 0064 0160     		str	r1, [r0]
 242:Drivers/STM32F0xx_HAL_Driver/Src/stm32f0xx_hal_gpio.c ****       {
 161              		.loc 1 242 7 is_stmt 1 view .LVU47
 242:Drivers/STM32F0xx_HAL_Driver/Src/stm32f0xx_hal_gpio.c ****       {
 162              		.loc 1 242 9 is_stmt 0 view .LVU48
 163 0066 5146     		mov	r1, r10
 164              	.LVL8:
 242:Drivers/STM32F0xx_HAL_Driver/Src/stm32f0xx_hal_gpio.c ****       {
 165              		.loc 1 242 9 view .LVU49
 166 0068 AD02     		lsls	r5, r5, #10
 167 006a 2942     		tst	r1, r5
 168 006c 57D0     		beq	.L4
ARM GAS  C:\Users\rokko\AppData\Local\Temp\ccKJi3OA.s 			page 9


 245:Drivers/STM32F0xx_HAL_Driver/Src/stm32f0xx_hal_gpio.c **** 
 169              		.loc 1 245 9 is_stmt 1 view .LVU50
 170              	.LBB4:
 245:Drivers/STM32F0xx_HAL_Driver/Src/stm32f0xx_hal_gpio.c **** 
 171              		.loc 1 245 9 view .LVU51
 245:Drivers/STM32F0xx_HAL_Driver/Src/stm32f0xx_hal_gpio.c **** 
 172              		.loc 1 245 9 view .LVU52
 173 006e 5946     		mov	r1, fp
 174 0070 0125     		movs	r5, #1
 175 0072 5E46     		mov	r6, fp
 176 0074 8969     		ldr	r1, [r1, #24]
 177 0076 2943     		orrs	r1, r5
 178 0078 B161     		str	r1, [r6, #24]
 179              	.LVL9:
 245:Drivers/STM32F0xx_HAL_Driver/Src/stm32f0xx_hal_gpio.c **** 
 180              		.loc 1 245 9 view .LVU53
 181 007a B169     		ldr	r1, [r6, #24]
 182              	.LBE4:
 248:Drivers/STM32F0xx_HAL_Driver/Src/stm32f0xx_hal_gpio.c ****         temp |= (GPIO_GET_INDEX(GPIOx) << (4u * (position & 0x03u)));
 183              		.loc 1 248 45 is_stmt 0 view .LVU54
 184 007c 0326     		movs	r6, #3
 185              	.LBB5:
 245:Drivers/STM32F0xx_HAL_Driver/Src/stm32f0xx_hal_gpio.c **** 
 186              		.loc 1 245 9 view .LVU55
 187 007e 2940     		ands	r1, r5
 188 0080 694D     		ldr	r5, .L35+8
 189 0082 0591     		str	r1, [sp, #20]
 245:Drivers/STM32F0xx_HAL_Driver/Src/stm32f0xx_hal_gpio.c **** 
 190              		.loc 1 245 9 is_stmt 1 view .LVU56
 191 0084 AC46     		mov	ip, r5
 192 0086 0599     		ldr	r1, [sp, #20]
 193              	.LBE5:
 245:Drivers/STM32F0xx_HAL_Driver/Src/stm32f0xx_hal_gpio.c **** 
 194              		.loc 1 245 9 view .LVU57
 247:Drivers/STM32F0xx_HAL_Driver/Src/stm32f0xx_hal_gpio.c ****         temp &= ~(0x0FuL << (4u * (position & 0x03u)));
 195              		.loc 1 247 9 view .LVU58
 248:Drivers/STM32F0xx_HAL_Driver/Src/stm32f0xx_hal_gpio.c ****         temp |= (GPIO_GET_INDEX(GPIOx) << (4u * (position & 0x03u)));
 196              		.loc 1 248 45 is_stmt 0 view .LVU59
 197 0088 1E40     		ands	r6, r3
 247:Drivers/STM32F0xx_HAL_Driver/Src/stm32f0xx_hal_gpio.c ****         temp &= ~(0x0FuL << (4u * (position & 0x03u)));
 198              		.loc 1 247 40 view .LVU60
 199 008a 9908     		lsrs	r1, r3, #2
 248:Drivers/STM32F0xx_HAL_Driver/Src/stm32f0xx_hal_gpio.c ****         temp |= (GPIO_GET_INDEX(GPIOx) << (4u * (position & 0x03u)));
 200              		.loc 1 248 33 view .LVU61
 201 008c B600     		lsls	r6, r6, #2
 202 008e 8900     		lsls	r1, r1, #2
 203 0090 6144     		add	r1, r1, ip
 204 0092 B446     		mov	ip, r6
 247:Drivers/STM32F0xx_HAL_Driver/Src/stm32f0xx_hal_gpio.c ****         temp &= ~(0x0FuL << (4u * (position & 0x03u)));
 205              		.loc 1 247 14 view .LVU62
 206 0094 8D68     		ldr	r5, [r1, #8]
 248:Drivers/STM32F0xx_HAL_Driver/Src/stm32f0xx_hal_gpio.c ****         temp |= (GPIO_GET_INDEX(GPIOx) << (4u * (position & 0x03u)));
 207              		.loc 1 248 26 view .LVU63
 208 0096 0F26     		movs	r6, #15
 247:Drivers/STM32F0xx_HAL_Driver/Src/stm32f0xx_hal_gpio.c ****         temp &= ~(0x0FuL << (4u * (position & 0x03u)));
 209              		.loc 1 247 14 view .LVU64
 210 0098 A946     		mov	r9, r5
ARM GAS  C:\Users\rokko\AppData\Local\Temp\ccKJi3OA.s 			page 10


 211              	.LVL10:
 248:Drivers/STM32F0xx_HAL_Driver/Src/stm32f0xx_hal_gpio.c ****         temp |= (GPIO_GET_INDEX(GPIOx) << (4u * (position & 0x03u)));
 212              		.loc 1 248 9 is_stmt 1 view .LVU65
 248:Drivers/STM32F0xx_HAL_Driver/Src/stm32f0xx_hal_gpio.c ****         temp |= (GPIO_GET_INDEX(GPIOx) << (4u * (position & 0x03u)));
 213              		.loc 1 248 26 is_stmt 0 view .LVU66
 214 009a 6546     		mov	r5, ip
 215              	.LVL11:
 248:Drivers/STM32F0xx_HAL_Driver/Src/stm32f0xx_hal_gpio.c ****         temp |= (GPIO_GET_INDEX(GPIOx) << (4u * (position & 0x03u)));
 216              		.loc 1 248 26 view .LVU67
 217 009c AE40     		lsls	r6, r6, r5
 248:Drivers/STM32F0xx_HAL_Driver/Src/stm32f0xx_hal_gpio.c ****         temp |= (GPIO_GET_INDEX(GPIOx) << (4u * (position & 0x03u)));
 218              		.loc 1 248 14 view .LVU68
 219 009e 3500     		movs	r5, r6
 220 00a0 4E46     		mov	r6, r9
 221 00a2 AE43     		bics	r6, r5
 222 00a4 B146     		mov	r9, r6
 223              	.LVL12:
 249:Drivers/STM32F0xx_HAL_Driver/Src/stm32f0xx_hal_gpio.c ****         SYSCFG->EXTICR[position >> 2u] = temp;
 224              		.loc 1 249 9 is_stmt 1 view .LVU69
 249:Drivers/STM32F0xx_HAL_Driver/Src/stm32f0xx_hal_gpio.c ****         SYSCFG->EXTICR[position >> 2u] = temp;
 225              		.loc 1 249 18 is_stmt 0 view .LVU70
 226 00a6 9026     		movs	r6, #144
 227              	.LVL13:
 249:Drivers/STM32F0xx_HAL_Driver/Src/stm32f0xx_hal_gpio.c ****         SYSCFG->EXTICR[position >> 2u] = temp;
 228              		.loc 1 249 18 view .LVU71
 229 00a8 F605     		lsls	r6, r6, #23
 230 00aa B042     		cmp	r0, r6
 231 00ac 12D0     		beq	.L10
 249:Drivers/STM32F0xx_HAL_Driver/Src/stm32f0xx_hal_gpio.c ****         SYSCFG->EXTICR[position >> 2u] = temp;
 232              		.loc 1 249 18 discriminator 1 view .LVU72
 233 00ae 5F4E     		ldr	r6, .L35+12
 234 00b0 B042     		cmp	r0, r6
 235 00b2 00D1     		bne	.LCB175
 236 00b4 A4E0     		b	.L32	@long jump
 237              	.LCB175:
 249:Drivers/STM32F0xx_HAL_Driver/Src/stm32f0xx_hal_gpio.c ****         SYSCFG->EXTICR[position >> 2u] = temp;
 238              		.loc 1 249 18 discriminator 3 view .LVU73
 239 00b6 5E4E     		ldr	r6, .L35+16
 240 00b8 B042     		cmp	r0, r6
 241 00ba 00D1     		bne	.LCB178
 242 00bc A8E0     		b	.L33	@long jump
 243              	.LCB178:
 249:Drivers/STM32F0xx_HAL_Driver/Src/stm32f0xx_hal_gpio.c ****         SYSCFG->EXTICR[position >> 2u] = temp;
 244              		.loc 1 249 18 discriminator 5 view .LVU74
 245 00be 5D4E     		ldr	r6, .L35+20
 246 00c0 B042     		cmp	r0, r6
 247 00c2 00D1     		bne	.LCB181
 248 00c4 95E0     		b	.L34	@long jump
 249              	.LCB181:
 249:Drivers/STM32F0xx_HAL_Driver/Src/stm32f0xx_hal_gpio.c ****         SYSCFG->EXTICR[position >> 2u] = temp;
 250              		.loc 1 249 40 discriminator 8 view .LVU75
 251 00c6 6546     		mov	r5, ip
 252 00c8 0526     		movs	r6, #5
 253 00ca AE40     		lsls	r6, r6, r5
 249:Drivers/STM32F0xx_HAL_Driver/Src/stm32f0xx_hal_gpio.c ****         SYSCFG->EXTICR[position >> 2u] = temp;
 254              		.loc 1 249 14 discriminator 8 view .LVU76
 255 00cc 3500     		movs	r5, r6
ARM GAS  C:\Users\rokko\AppData\Local\Temp\ccKJi3OA.s 			page 11


 256 00ce 4E46     		mov	r6, r9
 257 00d0 2E43     		orrs	r6, r5
 258 00d2 B146     		mov	r9, r6
 259              	.LVL14:
 260              	.L10:
 250:Drivers/STM32F0xx_HAL_Driver/Src/stm32f0xx_hal_gpio.c **** 
 261              		.loc 1 250 9 is_stmt 1 discriminator 16 view .LVU77
 250:Drivers/STM32F0xx_HAL_Driver/Src/stm32f0xx_hal_gpio.c **** 
 262              		.loc 1 250 40 is_stmt 0 discriminator 16 view .LVU78
 263 00d4 4D46     		mov	r5, r9
 264 00d6 8D60     		str	r5, [r1, #8]
 253:Drivers/STM32F0xx_HAL_Driver/Src/stm32f0xx_hal_gpio.c ****         temp &= ~(iocurrent);
 265              		.loc 1 253 9 is_stmt 1 discriminator 16 view .LVU79
 254:Drivers/STM32F0xx_HAL_Driver/Src/stm32f0xx_hal_gpio.c ****         if((GPIO_Init->Mode & EXTI_IT) != 0x00u)
 266              		.loc 1 254 17 is_stmt 0 discriminator 16 view .LVU80
 267 00d8 019D     		ldr	r5, [sp, #4]
 268              		.loc 1 255 11 discriminator 16 view .LVU81
 269 00da 8026     		movs	r6, #128
 254:Drivers/STM32F0xx_HAL_Driver/Src/stm32f0xx_hal_gpio.c ****         if((GPIO_Init->Mode & EXTI_IT) != 0x00u)
 270              		.loc 1 254 17 discriminator 16 view .LVU82
 271 00dc ED43     		mvns	r5, r5
 272 00de AC46     		mov	ip, r5
 273              		.loc 1 255 11 discriminator 16 view .LVU83
 274 00e0 5546     		mov	r5, r10
 275 00e2 7602     		lsls	r6, r6, #9
 253:Drivers/STM32F0xx_HAL_Driver/Src/stm32f0xx_hal_gpio.c ****         temp &= ~(iocurrent);
 276              		.loc 1 253 14 discriminator 16 view .LVU84
 277 00e4 3968     		ldr	r1, [r7]
 278              	.LVL15:
 254:Drivers/STM32F0xx_HAL_Driver/Src/stm32f0xx_hal_gpio.c ****         if((GPIO_Init->Mode & EXTI_IT) != 0x00u)
 279              		.loc 1 254 9 is_stmt 1 discriminator 16 view .LVU85
 280              		.loc 1 255 9 discriminator 16 view .LVU86
 281              		.loc 1 255 11 is_stmt 0 discriminator 16 view .LVU87
 282 00e6 3542     		tst	r5, r6
 283 00e8 00D0     		beq	.LCB211
 284 00ea 7FE0     		b	.L14	@long jump
 285              	.LCB211:
 254:Drivers/STM32F0xx_HAL_Driver/Src/stm32f0xx_hal_gpio.c ****         if((GPIO_Init->Mode & EXTI_IT) != 0x00u)
 286              		.loc 1 254 14 view .LVU88
 287 00ec 6546     		mov	r5, ip
 288 00ee 2940     		ands	r1, r5
 289              	.LVL16:
 290              	.L15:
 256:Drivers/STM32F0xx_HAL_Driver/Src/stm32f0xx_hal_gpio.c ****         {
 257:Drivers/STM32F0xx_HAL_Driver/Src/stm32f0xx_hal_gpio.c ****           temp |= iocurrent;
 258:Drivers/STM32F0xx_HAL_Driver/Src/stm32f0xx_hal_gpio.c ****         }
 259:Drivers/STM32F0xx_HAL_Driver/Src/stm32f0xx_hal_gpio.c ****         EXTI->IMR = temp;
 291              		.loc 1 259 9 is_stmt 1 view .LVU89
 260:Drivers/STM32F0xx_HAL_Driver/Src/stm32f0xx_hal_gpio.c **** 
 261:Drivers/STM32F0xx_HAL_Driver/Src/stm32f0xx_hal_gpio.c ****         temp = EXTI->EMR;
 262:Drivers/STM32F0xx_HAL_Driver/Src/stm32f0xx_hal_gpio.c ****         temp &= ~(iocurrent);
 263:Drivers/STM32F0xx_HAL_Driver/Src/stm32f0xx_hal_gpio.c ****         if((GPIO_Init->Mode & EXTI_EVT) != 0x00u)
 292              		.loc 1 263 11 is_stmt 0 view .LVU90
 293 00f0 5546     		mov	r5, r10
 259:Drivers/STM32F0xx_HAL_Driver/Src/stm32f0xx_hal_gpio.c **** 
 294              		.loc 1 259 19 view .LVU91
 295 00f2 3960     		str	r1, [r7]
ARM GAS  C:\Users\rokko\AppData\Local\Temp\ccKJi3OA.s 			page 12


 261:Drivers/STM32F0xx_HAL_Driver/Src/stm32f0xx_hal_gpio.c ****         temp &= ~(iocurrent);
 296              		.loc 1 261 9 is_stmt 1 view .LVU92
 261:Drivers/STM32F0xx_HAL_Driver/Src/stm32f0xx_hal_gpio.c ****         temp &= ~(iocurrent);
 297              		.loc 1 261 14 is_stmt 0 view .LVU93
 298 00f4 7968     		ldr	r1, [r7, #4]
 299              	.LVL17:
 262:Drivers/STM32F0xx_HAL_Driver/Src/stm32f0xx_hal_gpio.c ****         if((GPIO_Init->Mode & EXTI_EVT) != 0x00u)
 300              		.loc 1 262 9 is_stmt 1 view .LVU94
 301              		.loc 1 263 9 view .LVU95
 302              		.loc 1 263 11 is_stmt 0 view .LVU96
 303 00f6 AD03     		lsls	r5, r5, #14
 304 00f8 00D5     		bpl	.LCB232
 305 00fa 74E0     		b	.L16	@long jump
 306              	.LCB232:
 262:Drivers/STM32F0xx_HAL_Driver/Src/stm32f0xx_hal_gpio.c ****         if((GPIO_Init->Mode & EXTI_EVT) != 0x00u)
 307              		.loc 1 262 14 view .LVU97
 308 00fc 6546     		mov	r5, ip
 309 00fe 2940     		ands	r1, r5
 310              	.LVL18:
 311              	.L17:
 264:Drivers/STM32F0xx_HAL_Driver/Src/stm32f0xx_hal_gpio.c ****         {
 265:Drivers/STM32F0xx_HAL_Driver/Src/stm32f0xx_hal_gpio.c ****           temp |= iocurrent;
 266:Drivers/STM32F0xx_HAL_Driver/Src/stm32f0xx_hal_gpio.c ****         }
 267:Drivers/STM32F0xx_HAL_Driver/Src/stm32f0xx_hal_gpio.c ****         EXTI->EMR = temp;
 312              		.loc 1 267 9 is_stmt 1 view .LVU98
 313              		.loc 1 267 19 is_stmt 0 view .LVU99
 314 0100 7960     		str	r1, [r7, #4]
 268:Drivers/STM32F0xx_HAL_Driver/Src/stm32f0xx_hal_gpio.c **** 
 269:Drivers/STM32F0xx_HAL_Driver/Src/stm32f0xx_hal_gpio.c ****         /* Clear Rising Falling edge configuration */
 270:Drivers/STM32F0xx_HAL_Driver/Src/stm32f0xx_hal_gpio.c ****         temp = EXTI->RTSR;
 315              		.loc 1 270 9 is_stmt 1 view .LVU100
 271:Drivers/STM32F0xx_HAL_Driver/Src/stm32f0xx_hal_gpio.c ****         temp &= ~(iocurrent);
 272:Drivers/STM32F0xx_HAL_Driver/Src/stm32f0xx_hal_gpio.c ****         if((GPIO_Init->Mode & TRIGGER_RISING) != 0x00u)
 316              		.loc 1 272 11 is_stmt 0 view .LVU101
 317 0102 5146     		mov	r1, r10
 318              	.LVL19:
 270:Drivers/STM32F0xx_HAL_Driver/Src/stm32f0xx_hal_gpio.c ****         temp &= ~(iocurrent);
 319              		.loc 1 270 14 view .LVU102
 320 0104 BD68     		ldr	r5, [r7, #8]
 321              	.LVL20:
 271:Drivers/STM32F0xx_HAL_Driver/Src/stm32f0xx_hal_gpio.c ****         temp &= ~(iocurrent);
 322              		.loc 1 271 9 is_stmt 1 view .LVU103
 323              		.loc 1 272 9 view .LVU104
 324              		.loc 1 272 11 is_stmt 0 view .LVU105
 325 0106 C902     		lsls	r1, r1, #11
 326 0108 6AD4     		bmi	.L18
 271:Drivers/STM32F0xx_HAL_Driver/Src/stm32f0xx_hal_gpio.c ****         temp &= ~(iocurrent);
 327              		.loc 1 271 14 view .LVU106
 328 010a 6146     		mov	r1, ip
 329 010c 0D40     		ands	r5, r1
 330              	.LVL21:
 331              	.L19:
 273:Drivers/STM32F0xx_HAL_Driver/Src/stm32f0xx_hal_gpio.c ****         {
 274:Drivers/STM32F0xx_HAL_Driver/Src/stm32f0xx_hal_gpio.c ****           temp |= iocurrent;
 275:Drivers/STM32F0xx_HAL_Driver/Src/stm32f0xx_hal_gpio.c ****         }
 276:Drivers/STM32F0xx_HAL_Driver/Src/stm32f0xx_hal_gpio.c ****         EXTI->RTSR = temp;
 332              		.loc 1 276 9 is_stmt 1 view .LVU107
ARM GAS  C:\Users\rokko\AppData\Local\Temp\ccKJi3OA.s 			page 13


 333              		.loc 1 276 20 is_stmt 0 view .LVU108
 334 010e BD60     		str	r5, [r7, #8]
 277:Drivers/STM32F0xx_HAL_Driver/Src/stm32f0xx_hal_gpio.c **** 
 278:Drivers/STM32F0xx_HAL_Driver/Src/stm32f0xx_hal_gpio.c ****         temp = EXTI->FTSR;
 335              		.loc 1 278 9 is_stmt 1 view .LVU109
 279:Drivers/STM32F0xx_HAL_Driver/Src/stm32f0xx_hal_gpio.c ****         temp &= ~(iocurrent);
 280:Drivers/STM32F0xx_HAL_Driver/Src/stm32f0xx_hal_gpio.c ****         if((GPIO_Init->Mode & TRIGGER_FALLING) != 0x00u)
 336              		.loc 1 280 11 is_stmt 0 view .LVU110
 337 0110 5546     		mov	r5, r10
 338              	.LVL22:
 278:Drivers/STM32F0xx_HAL_Driver/Src/stm32f0xx_hal_gpio.c ****         temp &= ~(iocurrent);
 339              		.loc 1 278 14 view .LVU111
 340 0112 F968     		ldr	r1, [r7, #12]
 341              	.LVL23:
 279:Drivers/STM32F0xx_HAL_Driver/Src/stm32f0xx_hal_gpio.c ****         temp &= ~(iocurrent);
 342              		.loc 1 279 9 is_stmt 1 view .LVU112
 343              		.loc 1 280 9 view .LVU113
 344              		.loc 1 280 11 is_stmt 0 view .LVU114
 345 0114 AD02     		lsls	r5, r5, #10
 346 0116 5ED4     		bmi	.L20
 279:Drivers/STM32F0xx_HAL_Driver/Src/stm32f0xx_hal_gpio.c ****         temp &= ~(iocurrent);
 347              		.loc 1 279 14 view .LVU115
 348 0118 6546     		mov	r5, ip
 349 011a 2940     		ands	r1, r5
 350              	.LVL24:
 281:Drivers/STM32F0xx_HAL_Driver/Src/stm32f0xx_hal_gpio.c ****         {
 282:Drivers/STM32F0xx_HAL_Driver/Src/stm32f0xx_hal_gpio.c ****           temp |= iocurrent;
 283:Drivers/STM32F0xx_HAL_Driver/Src/stm32f0xx_hal_gpio.c ****         }
 284:Drivers/STM32F0xx_HAL_Driver/Src/stm32f0xx_hal_gpio.c ****         EXTI->FTSR = temp;
 351              		.loc 1 284 9 is_stmt 1 view .LVU116
 352              		.loc 1 284 20 is_stmt 0 view .LVU117
 353 011c F960     		str	r1, [r7, #12]
 354              	.LVL25:
 355              	.L4:
 285:Drivers/STM32F0xx_HAL_Driver/Src/stm32f0xx_hal_gpio.c ****       }
 286:Drivers/STM32F0xx_HAL_Driver/Src/stm32f0xx_hal_gpio.c ****     }
 287:Drivers/STM32F0xx_HAL_Driver/Src/stm32f0xx_hal_gpio.c **** 
 288:Drivers/STM32F0xx_HAL_Driver/Src/stm32f0xx_hal_gpio.c ****     position++;
 356              		.loc 1 288 5 is_stmt 1 view .LVU118
 181:Drivers/STM32F0xx_HAL_Driver/Src/stm32f0xx_hal_gpio.c ****   {
 357              		.loc 1 181 28 is_stmt 0 view .LVU119
 358 011e 2100     		movs	r1, r4
 359              		.loc 1 288 13 view .LVU120
 360 0120 0133     		adds	r3, r3, #1
 361              	.LVL26:
 181:Drivers/STM32F0xx_HAL_Driver/Src/stm32f0xx_hal_gpio.c ****   {
 362              		.loc 1 181 9 is_stmt 1 view .LVU121
 181:Drivers/STM32F0xx_HAL_Driver/Src/stm32f0xx_hal_gpio.c ****   {
 363              		.loc 1 181 28 is_stmt 0 view .LVU122
 364 0122 D940     		lsrs	r1, r1, r3
 181:Drivers/STM32F0xx_HAL_Driver/Src/stm32f0xx_hal_gpio.c ****   {
 365              		.loc 1 181 9 view .LVU123
 366 0124 0232     		adds	r2, r2, #2
 367 0126 0029     		cmp	r1, #0
 368 0128 00D0     		beq	.LCB297
 369 012a 7CE7     		b	.L2	@long jump
 370              	.LCB297:
ARM GAS  C:\Users\rokko\AppData\Local\Temp\ccKJi3OA.s 			page 14


 371              	.LVL27:
 372              	.L1:
 289:Drivers/STM32F0xx_HAL_Driver/Src/stm32f0xx_hal_gpio.c ****   } 
 290:Drivers/STM32F0xx_HAL_Driver/Src/stm32f0xx_hal_gpio.c **** }
 373              		.loc 1 290 1 view .LVU124
 374 012c 07B0     		add	sp, sp, #28
 375              		@ sp needed
 376 012e F0BC     		pop	{r4, r5, r6, r7}
 377 0130 BB46     		mov	fp, r7
 378 0132 B246     		mov	r10, r6
 379 0134 A946     		mov	r9, r5
 380 0136 A046     		mov	r8, r4
 381 0138 F0BD     		pop	{r4, r5, r6, r7, pc}
 382              	.LVL28:
 383              	.L31:
 194:Drivers/STM32F0xx_HAL_Driver/Src/stm32f0xx_hal_gpio.c ****         /* Configure the IO Speed */
 384              		.loc 1 194 9 is_stmt 1 view .LVU125
 196:Drivers/STM32F0xx_HAL_Driver/Src/stm32f0xx_hal_gpio.c ****         temp &= ~(GPIO_OSPEEDER_OSPEEDR0 << (position * 2u));
 385              		.loc 1 196 9 view .LVU126
 196:Drivers/STM32F0xx_HAL_Driver/Src/stm32f0xx_hal_gpio.c ****         temp &= ~(GPIO_OSPEEDER_OSPEEDR0 << (position * 2u));
 386              		.loc 1 196 14 is_stmt 0 view .LVU127
 387 013a 8168     		ldr	r1, [r0, #8]
 388 013c 8946     		mov	r9, r1
 389              	.LVL29:
 197:Drivers/STM32F0xx_HAL_Driver/Src/stm32f0xx_hal_gpio.c ****         temp |= (GPIO_Init->Speed << (position * 2u));
 390              		.loc 1 197 9 is_stmt 1 view .LVU128
 197:Drivers/STM32F0xx_HAL_Driver/Src/stm32f0xx_hal_gpio.c ****         temp |= (GPIO_Init->Speed << (position * 2u));
 391              		.loc 1 197 42 is_stmt 0 view .LVU129
 392 013e 0321     		movs	r1, #3
 393              	.LVL30:
 197:Drivers/STM32F0xx_HAL_Driver/Src/stm32f0xx_hal_gpio.c ****         temp |= (GPIO_Init->Speed << (position * 2u));
 394              		.loc 1 197 42 view .LVU130
 395 0140 9140     		lsls	r1, r1, r2
 197:Drivers/STM32F0xx_HAL_Driver/Src/stm32f0xx_hal_gpio.c ****         temp |= (GPIO_Init->Speed << (position * 2u));
 396              		.loc 1 197 17 view .LVU131
 397 0142 CE43     		mvns	r6, r1
 398 0144 0296     		str	r6, [sp, #8]
 197:Drivers/STM32F0xx_HAL_Driver/Src/stm32f0xx_hal_gpio.c ****         temp |= (GPIO_Init->Speed << (position * 2u));
 399              		.loc 1 197 14 view .LVU132
 400 0146 4E46     		mov	r6, r9
 401 0148 8E43     		bics	r6, r1
 198:Drivers/STM32F0xx_HAL_Driver/Src/stm32f0xx_hal_gpio.c ****         GPIOx->OSPEEDR = temp;
 402              		.loc 1 198 35 view .LVU133
 403 014a 0399     		ldr	r1, [sp, #12]
 197:Drivers/STM32F0xx_HAL_Driver/Src/stm32f0xx_hal_gpio.c ****         temp |= (GPIO_Init->Speed << (position * 2u));
 404              		.loc 1 197 14 view .LVU134
 405 014c B146     		mov	r9, r6
 406              	.LVL31:
 198:Drivers/STM32F0xx_HAL_Driver/Src/stm32f0xx_hal_gpio.c ****         GPIOx->OSPEEDR = temp;
 407              		.loc 1 198 9 is_stmt 1 view .LVU135
 198:Drivers/STM32F0xx_HAL_Driver/Src/stm32f0xx_hal_gpio.c ****         GPIOx->OSPEEDR = temp;
 408              		.loc 1 198 35 is_stmt 0 view .LVU136
 409 014e CE68     		ldr	r6, [r1, #12]
 410              	.LVL32:
 198:Drivers/STM32F0xx_HAL_Driver/Src/stm32f0xx_hal_gpio.c ****         GPIOx->OSPEEDR = temp;
 411              		.loc 1 198 35 view .LVU137
 412 0150 9640     		lsls	r6, r6, r2
ARM GAS  C:\Users\rokko\AppData\Local\Temp\ccKJi3OA.s 			page 15


 413 0152 B046     		mov	r8, r6
 198:Drivers/STM32F0xx_HAL_Driver/Src/stm32f0xx_hal_gpio.c ****         GPIOx->OSPEEDR = temp;
 414              		.loc 1 198 14 view .LVU138
 415 0154 4E46     		mov	r6, r9
 416 0156 4146     		mov	r1, r8
 417 0158 0E43     		orrs	r6, r1
 418              	.LVL33:
 199:Drivers/STM32F0xx_HAL_Driver/Src/stm32f0xx_hal_gpio.c **** 
 419              		.loc 1 199 9 is_stmt 1 view .LVU139
 199:Drivers/STM32F0xx_HAL_Driver/Src/stm32f0xx_hal_gpio.c **** 
 420              		.loc 1 199 24 is_stmt 0 view .LVU140
 421 015a 8660     		str	r6, [r0, #8]
 202:Drivers/STM32F0xx_HAL_Driver/Src/stm32f0xx_hal_gpio.c ****         temp &= ~(GPIO_OTYPER_OT_0 << position) ;
 422              		.loc 1 202 9 is_stmt 1 view .LVU141
 202:Drivers/STM32F0xx_HAL_Driver/Src/stm32f0xx_hal_gpio.c ****         temp &= ~(GPIO_OTYPER_OT_0 << position) ;
 423              		.loc 1 202 14 is_stmt 0 view .LVU142
 424 015c 4168     		ldr	r1, [r0, #4]
 425              	.LVL34:
 203:Drivers/STM32F0xx_HAL_Driver/Src/stm32f0xx_hal_gpio.c ****         temp |= (((GPIO_Init->Mode & OUTPUT_TYPE) >> OUTPUT_TYPE_Pos) << position);
 426              		.loc 1 203 9 is_stmt 1 view .LVU143
 203:Drivers/STM32F0xx_HAL_Driver/Src/stm32f0xx_hal_gpio.c ****         temp |= (((GPIO_Init->Mode & OUTPUT_TYPE) >> OUTPUT_TYPE_Pos) << position);
 427              		.loc 1 203 14 is_stmt 0 view .LVU144
 428 015e 0E00     		movs	r6, r1
 204:Drivers/STM32F0xx_HAL_Driver/Src/stm32f0xx_hal_gpio.c ****         GPIOx->OTYPER = temp;
 429              		.loc 1 204 51 view .LVU145
 430 0160 5146     		mov	r1, r10
 431              	.LVL35:
 203:Drivers/STM32F0xx_HAL_Driver/Src/stm32f0xx_hal_gpio.c ****         temp |= (((GPIO_Init->Mode & OUTPUT_TYPE) >> OUTPUT_TYPE_Pos) << position);
 432              		.loc 1 203 14 view .LVU146
 433 0162 AE43     		bics	r6, r5
 434              	.LVL36:
 204:Drivers/STM32F0xx_HAL_Driver/Src/stm32f0xx_hal_gpio.c ****         GPIOx->OTYPER = temp;
 435              		.loc 1 204 9 is_stmt 1 view .LVU147
 204:Drivers/STM32F0xx_HAL_Driver/Src/stm32f0xx_hal_gpio.c ****         GPIOx->OTYPER = temp;
 436              		.loc 1 204 51 is_stmt 0 view .LVU148
 437 0164 0D09     		lsrs	r5, r1, #4
 438 0166 0121     		movs	r1, #1
 439 0168 0D40     		ands	r5, r1
 204:Drivers/STM32F0xx_HAL_Driver/Src/stm32f0xx_hal_gpio.c ****         GPIOx->OTYPER = temp;
 440              		.loc 1 204 71 view .LVU149
 441 016a 9D40     		lsls	r5, r5, r3
 204:Drivers/STM32F0xx_HAL_Driver/Src/stm32f0xx_hal_gpio.c ****         GPIOx->OTYPER = temp;
 442              		.loc 1 204 14 view .LVU150
 443 016c 3543     		orrs	r5, r6
 444              	.LVL37:
 205:Drivers/STM32F0xx_HAL_Driver/Src/stm32f0xx_hal_gpio.c ****       }
 445              		.loc 1 205 9 is_stmt 1 view .LVU151
 205:Drivers/STM32F0xx_HAL_Driver/Src/stm32f0xx_hal_gpio.c ****       }
 446              		.loc 1 205 23 is_stmt 0 view .LVU152
 447 016e 4560     		str	r5, [r0, #4]
 208:Drivers/STM32F0xx_HAL_Driver/Src/stm32f0xx_hal_gpio.c ****       {
 448              		.loc 1 208 7 is_stmt 1 view .LVU153
 449              	.LVL38:
 450              	.L6:
 211:Drivers/STM32F0xx_HAL_Driver/Src/stm32f0xx_hal_gpio.c **** 
 451              		.loc 1 211 9 view .LVU154
 214:Drivers/STM32F0xx_HAL_Driver/Src/stm32f0xx_hal_gpio.c ****         temp &= ~(GPIO_PUPDR_PUPDR0 << (position * 2u));
ARM GAS  C:\Users\rokko\AppData\Local\Temp\ccKJi3OA.s 			page 16


 452              		.loc 1 214 9 view .LVU155
 214:Drivers/STM32F0xx_HAL_Driver/Src/stm32f0xx_hal_gpio.c ****         temp &= ~(GPIO_PUPDR_PUPDR0 << (position * 2u));
 453              		.loc 1 214 14 is_stmt 0 view .LVU156
 454 0170 C568     		ldr	r5, [r0, #12]
 455              	.LVL39:
 215:Drivers/STM32F0xx_HAL_Driver/Src/stm32f0xx_hal_gpio.c ****         temp |= ((GPIO_Init->Pull) << (position * 2u));
 456              		.loc 1 215 9 is_stmt 1 view .LVU157
 215:Drivers/STM32F0xx_HAL_Driver/Src/stm32f0xx_hal_gpio.c ****         temp |= ((GPIO_Init->Pull) << (position * 2u));
 457              		.loc 1 215 14 is_stmt 0 view .LVU158
 458 0172 0299     		ldr	r1, [sp, #8]
 459 0174 0D40     		ands	r5, r1
 460              	.LVL40:
 215:Drivers/STM32F0xx_HAL_Driver/Src/stm32f0xx_hal_gpio.c ****         temp |= ((GPIO_Init->Pull) << (position * 2u));
 461              		.loc 1 215 14 view .LVU159
 462 0176 A846     		mov	r8, r5
 463              	.LVL41:
 216:Drivers/STM32F0xx_HAL_Driver/Src/stm32f0xx_hal_gpio.c ****         GPIOx->PUPDR = temp;
 464              		.loc 1 216 9 is_stmt 1 view .LVU160
 216:Drivers/STM32F0xx_HAL_Driver/Src/stm32f0xx_hal_gpio.c ****         GPIOx->PUPDR = temp;
 465              		.loc 1 216 36 is_stmt 0 view .LVU161
 466 0178 0399     		ldr	r1, [sp, #12]
 216:Drivers/STM32F0xx_HAL_Driver/Src/stm32f0xx_hal_gpio.c ****         GPIOx->PUPDR = temp;
 467              		.loc 1 216 14 view .LVU162
 468 017a 4646     		mov	r6, r8
 216:Drivers/STM32F0xx_HAL_Driver/Src/stm32f0xx_hal_gpio.c ****         GPIOx->PUPDR = temp;
 469              		.loc 1 216 36 view .LVU163
 470 017c 8D68     		ldr	r5, [r1, #8]
 471              	.LVL42:
 216:Drivers/STM32F0xx_HAL_Driver/Src/stm32f0xx_hal_gpio.c ****         GPIOx->PUPDR = temp;
 472              		.loc 1 216 36 view .LVU164
 473 017e 9540     		lsls	r5, r5, r2
 216:Drivers/STM32F0xx_HAL_Driver/Src/stm32f0xx_hal_gpio.c ****         GPIOx->PUPDR = temp;
 474              		.loc 1 216 14 view .LVU165
 475 0180 3543     		orrs	r5, r6
 476              	.LVL43:
 217:Drivers/STM32F0xx_HAL_Driver/Src/stm32f0xx_hal_gpio.c ****       }
 477              		.loc 1 217 9 is_stmt 1 view .LVU166
 217:Drivers/STM32F0xx_HAL_Driver/Src/stm32f0xx_hal_gpio.c ****       }
 478              		.loc 1 217 22 is_stmt 0 view .LVU167
 479 0182 C560     		str	r5, [r0, #12]
 221:Drivers/STM32F0xx_HAL_Driver/Src/stm32f0xx_hal_gpio.c ****       {
 480              		.loc 1 221 7 is_stmt 1 view .LVU168
 221:Drivers/STM32F0xx_HAL_Driver/Src/stm32f0xx_hal_gpio.c ****       {
 481              		.loc 1 221 9 is_stmt 0 view .LVU169
 482 0184 6646     		mov	r6, ip
 483 0186 6546     		mov	r5, ip
 484              	.LVL44:
 221:Drivers/STM32F0xx_HAL_Driver/Src/stm32f0xx_hal_gpio.c ****       {
 485              		.loc 1 221 9 view .LVU170
 486 0188 9540     		lsls	r5, r5, r2
 487 018a 022E     		cmp	r6, #2
 488 018c 00D0     		beq	.LCB406
 489 018e 64E7     		b	.L8	@long jump
 490              	.LCB406:
 224:Drivers/STM32F0xx_HAL_Driver/Src/stm32f0xx_hal_gpio.c ****         assert_param(IS_GPIO_AF(GPIO_Init->Alternate));
 491              		.loc 1 224 9 is_stmt 1 view .LVU171
 225:Drivers/STM32F0xx_HAL_Driver/Src/stm32f0xx_hal_gpio.c **** 
ARM GAS  C:\Users\rokko\AppData\Local\Temp\ccKJi3OA.s 			page 17


 492              		.loc 1 225 9 view .LVU172
 228:Drivers/STM32F0xx_HAL_Driver/Src/stm32f0xx_hal_gpio.c ****         temp &= ~(0xFu << ((position & 0x07u) * 4u));
 493              		.loc 1 228 9 view .LVU173
 228:Drivers/STM32F0xx_HAL_Driver/Src/stm32f0xx_hal_gpio.c ****         temp &= ~(0xFu << ((position & 0x07u) * 4u));
 494              		.loc 1 228 36 is_stmt 0 view .LVU174
 495 0190 D908     		lsrs	r1, r3, #3
 496 0192 8900     		lsls	r1, r1, #2
 497 0194 8C46     		mov	ip, r1
 498 0196 8444     		add	ip, ip, r0
 228:Drivers/STM32F0xx_HAL_Driver/Src/stm32f0xx_hal_gpio.c ****         temp &= ~(0xFu << ((position & 0x07u) * 4u));
 499              		.loc 1 228 14 view .LVU175
 500 0198 6146     		mov	r1, ip
 501 019a 096A     		ldr	r1, [r1, #32]
 502              	.LVL45:
 228:Drivers/STM32F0xx_HAL_Driver/Src/stm32f0xx_hal_gpio.c ****         temp &= ~(0xFu << ((position & 0x07u) * 4u));
 503              		.loc 1 228 14 view .LVU176
 504 019c 8946     		mov	r9, r1
 505              	.LVL46:
 229:Drivers/STM32F0xx_HAL_Driver/Src/stm32f0xx_hal_gpio.c ****         temp |= ((GPIO_Init->Alternate) << ((position & 0x07u) * 4u));
 506              		.loc 1 229 9 is_stmt 1 view .LVU177
 229:Drivers/STM32F0xx_HAL_Driver/Src/stm32f0xx_hal_gpio.c ****         temp |= ((GPIO_Init->Alternate) << ((position & 0x07u) * 4u));
 507              		.loc 1 229 38 is_stmt 0 view .LVU178
 508 019e 0721     		movs	r1, #7
 509              	.LVL47:
 229:Drivers/STM32F0xx_HAL_Driver/Src/stm32f0xx_hal_gpio.c ****         temp |= ((GPIO_Init->Alternate) << ((position & 0x07u) * 4u));
 510              		.loc 1 229 38 view .LVU179
 511 01a0 0E00     		movs	r6, r1
 512 01a2 1E40     		ands	r6, r3
 229:Drivers/STM32F0xx_HAL_Driver/Src/stm32f0xx_hal_gpio.c ****         temp |= ((GPIO_Init->Alternate) << ((position & 0x07u) * 4u));
 513              		.loc 1 229 47 view .LVU180
 514 01a4 B100     		lsls	r1, r6, #2
 229:Drivers/STM32F0xx_HAL_Driver/Src/stm32f0xx_hal_gpio.c ****         temp |= ((GPIO_Init->Alternate) << ((position & 0x07u) * 4u));
 515              		.loc 1 229 24 view .LVU181
 516 01a6 0F26     		movs	r6, #15
 229:Drivers/STM32F0xx_HAL_Driver/Src/stm32f0xx_hal_gpio.c ****         temp |= ((GPIO_Init->Alternate) << ((position & 0x07u) * 4u));
 517              		.loc 1 229 47 view .LVU182
 518 01a8 8846     		mov	r8, r1
 229:Drivers/STM32F0xx_HAL_Driver/Src/stm32f0xx_hal_gpio.c ****         temp |= ((GPIO_Init->Alternate) << ((position & 0x07u) * 4u));
 519              		.loc 1 229 24 view .LVU183
 520 01aa 8E40     		lsls	r6, r6, r1
 229:Drivers/STM32F0xx_HAL_Driver/Src/stm32f0xx_hal_gpio.c ****         temp |= ((GPIO_Init->Alternate) << ((position & 0x07u) * 4u));
 521              		.loc 1 229 14 view .LVU184
 522 01ac 4946     		mov	r1, r9
 523 01ae B143     		bics	r1, r6
 230:Drivers/STM32F0xx_HAL_Driver/Src/stm32f0xx_hal_gpio.c ****         GPIOx->AFR[position >> 3u] = temp;
 524              		.loc 1 230 41 view .LVU185
 525 01b0 4646     		mov	r6, r8
 229:Drivers/STM32F0xx_HAL_Driver/Src/stm32f0xx_hal_gpio.c ****         temp |= ((GPIO_Init->Alternate) << ((position & 0x07u) * 4u));
 526              		.loc 1 229 14 view .LVU186
 527 01b2 8946     		mov	r9, r1
 528              	.LVL48:
 230:Drivers/STM32F0xx_HAL_Driver/Src/stm32f0xx_hal_gpio.c ****         GPIOx->AFR[position >> 3u] = temp;
 529              		.loc 1 230 9 is_stmt 1 view .LVU187
 230:Drivers/STM32F0xx_HAL_Driver/Src/stm32f0xx_hal_gpio.c ****         GPIOx->AFR[position >> 3u] = temp;
 530              		.loc 1 230 41 is_stmt 0 view .LVU188
 531 01b4 0399     		ldr	r1, [sp, #12]
 532              	.LVL49:
ARM GAS  C:\Users\rokko\AppData\Local\Temp\ccKJi3OA.s 			page 18


 230:Drivers/STM32F0xx_HAL_Driver/Src/stm32f0xx_hal_gpio.c ****         GPIOx->AFR[position >> 3u] = temp;
 533              		.loc 1 230 41 view .LVU189
 534 01b6 0969     		ldr	r1, [r1, #16]
 535 01b8 B140     		lsls	r1, r1, r6
 536 01ba 8846     		mov	r8, r1
 230:Drivers/STM32F0xx_HAL_Driver/Src/stm32f0xx_hal_gpio.c ****         GPIOx->AFR[position >> 3u] = temp;
 537              		.loc 1 230 14 view .LVU190
 538 01bc 4946     		mov	r1, r9
 539 01be 4646     		mov	r6, r8
 540 01c0 3143     		orrs	r1, r6
 541 01c2 8946     		mov	r9, r1
 542              	.LVL50:
 231:Drivers/STM32F0xx_HAL_Driver/Src/stm32f0xx_hal_gpio.c ****       }
 543              		.loc 1 231 9 is_stmt 1 view .LVU191
 231:Drivers/STM32F0xx_HAL_Driver/Src/stm32f0xx_hal_gpio.c ****       }
 544              		.loc 1 231 36 is_stmt 0 view .LVU192
 545 01c4 6146     		mov	r1, ip
 546              	.LVL51:
 231:Drivers/STM32F0xx_HAL_Driver/Src/stm32f0xx_hal_gpio.c ****       }
 547              		.loc 1 231 36 view .LVU193
 548 01c6 4E46     		mov	r6, r9
 549 01c8 0E62     		str	r6, [r1, #32]
 550 01ca 46E7     		b	.L8
 551              	.LVL52:
 552              	.L7:
 197:Drivers/STM32F0xx_HAL_Driver/Src/stm32f0xx_hal_gpio.c ****         temp |= (GPIO_Init->Speed << (position * 2u));
 553              		.loc 1 197 42 view .LVU194
 554 01cc 0321     		movs	r1, #3
 555 01ce 9140     		lsls	r1, r1, r2
 197:Drivers/STM32F0xx_HAL_Driver/Src/stm32f0xx_hal_gpio.c ****         temp |= (GPIO_Init->Speed << (position * 2u));
 556              		.loc 1 197 17 view .LVU195
 557 01d0 C943     		mvns	r1, r1
 558 01d2 0291     		str	r1, [sp, #8]
 559 01d4 CCE7     		b	.L6
 560              	.LVL53:
 561              	.L20:
 282:Drivers/STM32F0xx_HAL_Driver/Src/stm32f0xx_hal_gpio.c ****         }
 562              		.loc 1 282 11 is_stmt 1 view .LVU196
 282:Drivers/STM32F0xx_HAL_Driver/Src/stm32f0xx_hal_gpio.c ****         }
 563              		.loc 1 282 16 is_stmt 0 view .LVU197
 564 01d6 019D     		ldr	r5, [sp, #4]
 565 01d8 0D43     		orrs	r5, r1
 566 01da 2900     		movs	r1, r5
 567              	.LVL54:
 284:Drivers/STM32F0xx_HAL_Driver/Src/stm32f0xx_hal_gpio.c ****       }
 568              		.loc 1 284 9 is_stmt 1 view .LVU198
 284:Drivers/STM32F0xx_HAL_Driver/Src/stm32f0xx_hal_gpio.c ****       }
 569              		.loc 1 284 20 is_stmt 0 view .LVU199
 570 01dc F960     		str	r1, [r7, #12]
 571 01de 9EE7     		b	.L4
 572              	.LVL55:
 573              	.L18:
 274:Drivers/STM32F0xx_HAL_Driver/Src/stm32f0xx_hal_gpio.c ****         }
 574              		.loc 1 274 11 is_stmt 1 view .LVU200
 274:Drivers/STM32F0xx_HAL_Driver/Src/stm32f0xx_hal_gpio.c ****         }
 575              		.loc 1 274 16 is_stmt 0 view .LVU201
 576 01e0 0199     		ldr	r1, [sp, #4]
ARM GAS  C:\Users\rokko\AppData\Local\Temp\ccKJi3OA.s 			page 19


 577 01e2 0D43     		orrs	r5, r1
 578              	.LVL56:
 274:Drivers/STM32F0xx_HAL_Driver/Src/stm32f0xx_hal_gpio.c ****         }
 579              		.loc 1 274 16 view .LVU202
 580 01e4 93E7     		b	.L19
 581              	.LVL57:
 582              	.L16:
 265:Drivers/STM32F0xx_HAL_Driver/Src/stm32f0xx_hal_gpio.c ****         }
 583              		.loc 1 265 11 is_stmt 1 view .LVU203
 265:Drivers/STM32F0xx_HAL_Driver/Src/stm32f0xx_hal_gpio.c ****         }
 584              		.loc 1 265 16 is_stmt 0 view .LVU204
 585 01e6 019D     		ldr	r5, [sp, #4]
 586 01e8 2943     		orrs	r1, r5
 587              	.LVL58:
 265:Drivers/STM32F0xx_HAL_Driver/Src/stm32f0xx_hal_gpio.c ****         }
 588              		.loc 1 265 16 view .LVU205
 589 01ea 89E7     		b	.L17
 590              	.LVL59:
 591              	.L14:
 257:Drivers/STM32F0xx_HAL_Driver/Src/stm32f0xx_hal_gpio.c ****         }
 592              		.loc 1 257 11 is_stmt 1 view .LVU206
 257:Drivers/STM32F0xx_HAL_Driver/Src/stm32f0xx_hal_gpio.c ****         }
 593              		.loc 1 257 16 is_stmt 0 view .LVU207
 594 01ec 019D     		ldr	r5, [sp, #4]
 595 01ee 2943     		orrs	r1, r5
 596              	.LVL60:
 257:Drivers/STM32F0xx_HAL_Driver/Src/stm32f0xx_hal_gpio.c ****         }
 597              		.loc 1 257 16 view .LVU208
 598 01f0 7EE7     		b	.L15
 599              	.LVL61:
 600              	.L34:
 249:Drivers/STM32F0xx_HAL_Driver/Src/stm32f0xx_hal_gpio.c ****         SYSCFG->EXTICR[position >> 2u] = temp;
 601              		.loc 1 249 40 view .LVU209
 602 01f2 6646     		mov	r6, ip
 603 01f4 0325     		movs	r5, #3
 604 01f6 B540     		lsls	r5, r5, r6
 249:Drivers/STM32F0xx_HAL_Driver/Src/stm32f0xx_hal_gpio.c ****         SYSCFG->EXTICR[position >> 2u] = temp;
 605              		.loc 1 249 14 view .LVU210
 606 01f8 4E46     		mov	r6, r9
 607 01fa 2E43     		orrs	r6, r5
 608 01fc B146     		mov	r9, r6
 609              	.LVL62:
 249:Drivers/STM32F0xx_HAL_Driver/Src/stm32f0xx_hal_gpio.c ****         SYSCFG->EXTICR[position >> 2u] = temp;
 610              		.loc 1 249 14 view .LVU211
 611 01fe 69E7     		b	.L10
 612              	.LVL63:
 613              	.L32:
 249:Drivers/STM32F0xx_HAL_Driver/Src/stm32f0xx_hal_gpio.c ****         SYSCFG->EXTICR[position >> 2u] = temp;
 614              		.loc 1 249 40 view .LVU212
 615 0200 6546     		mov	r5, ip
 616 0202 0126     		movs	r6, #1
 617 0204 AE40     		lsls	r6, r6, r5
 249:Drivers/STM32F0xx_HAL_Driver/Src/stm32f0xx_hal_gpio.c ****         SYSCFG->EXTICR[position >> 2u] = temp;
 618              		.loc 1 249 14 view .LVU213
 619 0206 3500     		movs	r5, r6
 620 0208 4E46     		mov	r6, r9
 621 020a 2E43     		orrs	r6, r5
ARM GAS  C:\Users\rokko\AppData\Local\Temp\ccKJi3OA.s 			page 20


 622 020c B146     		mov	r9, r6
 623              	.LVL64:
 249:Drivers/STM32F0xx_HAL_Driver/Src/stm32f0xx_hal_gpio.c ****         SYSCFG->EXTICR[position >> 2u] = temp;
 624              		.loc 1 249 14 view .LVU214
 625 020e 61E7     		b	.L10
 626              	.LVL65:
 627              	.L33:
 249:Drivers/STM32F0xx_HAL_Driver/Src/stm32f0xx_hal_gpio.c ****         SYSCFG->EXTICR[position >> 2u] = temp;
 628              		.loc 1 249 40 view .LVU215
 629 0210 6646     		mov	r6, ip
 630 0212 0225     		movs	r5, #2
 631 0214 B540     		lsls	r5, r5, r6
 249:Drivers/STM32F0xx_HAL_Driver/Src/stm32f0xx_hal_gpio.c ****         SYSCFG->EXTICR[position >> 2u] = temp;
 632              		.loc 1 249 14 view .LVU216
 633 0216 4E46     		mov	r6, r9
 634 0218 2E43     		orrs	r6, r5
 635 021a B146     		mov	r9, r6
 636              	.LVL66:
 249:Drivers/STM32F0xx_HAL_Driver/Src/stm32f0xx_hal_gpio.c ****         SYSCFG->EXTICR[position >> 2u] = temp;
 637              		.loc 1 249 14 view .LVU217
 638 021c 5AE7     		b	.L10
 639              	.L36:
 640 021e C046     		.align	2
 641              	.L35:
 642 0220 00100240 		.word	1073876992
 643 0224 00040140 		.word	1073808384
 644 0228 00000140 		.word	1073807360
 645 022c 00040048 		.word	1207960576
 646 0230 00080048 		.word	1207961600
 647 0234 000C0048 		.word	1207962624
 648              		.cfi_endproc
 649              	.LFE40:
 651              		.section	.text.HAL_GPIO_DeInit,"ax",%progbits
 652              		.align	1
 653              		.p2align 2,,3
 654              		.global	HAL_GPIO_DeInit
 655              		.syntax unified
 656              		.code	16
 657              		.thumb_func
 659              	HAL_GPIO_DeInit:
 660              	.LVL67:
 661              	.LFB41:
 291:Drivers/STM32F0xx_HAL_Driver/Src/stm32f0xx_hal_gpio.c **** 
 292:Drivers/STM32F0xx_HAL_Driver/Src/stm32f0xx_hal_gpio.c **** /**
 293:Drivers/STM32F0xx_HAL_Driver/Src/stm32f0xx_hal_gpio.c ****   * @brief  De-initialize the GPIOx peripheral registers to their default reset values.
 294:Drivers/STM32F0xx_HAL_Driver/Src/stm32f0xx_hal_gpio.c ****   * @param  GPIOx where x can be (A..F) to select the GPIO peripheral for STM32F0 family
 295:Drivers/STM32F0xx_HAL_Driver/Src/stm32f0xx_hal_gpio.c ****   * @param  GPIO_Pin specifies the port bit to be written.
 296:Drivers/STM32F0xx_HAL_Driver/Src/stm32f0xx_hal_gpio.c ****   *         This parameter can be one of GPIO_PIN_x where x can be (0..15).
 297:Drivers/STM32F0xx_HAL_Driver/Src/stm32f0xx_hal_gpio.c ****   * @retval None
 298:Drivers/STM32F0xx_HAL_Driver/Src/stm32f0xx_hal_gpio.c ****   */
 299:Drivers/STM32F0xx_HAL_Driver/Src/stm32f0xx_hal_gpio.c **** void HAL_GPIO_DeInit(GPIO_TypeDef  *GPIOx, uint32_t GPIO_Pin)
 300:Drivers/STM32F0xx_HAL_Driver/Src/stm32f0xx_hal_gpio.c **** {
 662              		.loc 1 300 1 is_stmt 1 view -0
 663              		.cfi_startproc
 664              		@ args = 0, pretend = 0, frame = 8
 665              		@ frame_needed = 0, uses_anonymous_args = 0
 301:Drivers/STM32F0xx_HAL_Driver/Src/stm32f0xx_hal_gpio.c ****   uint32_t position = 0x00u;
ARM GAS  C:\Users\rokko\AppData\Local\Temp\ccKJi3OA.s 			page 21


 666              		.loc 1 301 3 view .LVU219
 302:Drivers/STM32F0xx_HAL_Driver/Src/stm32f0xx_hal_gpio.c ****   uint32_t iocurrent;
 667              		.loc 1 302 3 view .LVU220
 303:Drivers/STM32F0xx_HAL_Driver/Src/stm32f0xx_hal_gpio.c ****   uint32_t tmp;
 668              		.loc 1 303 3 view .LVU221
 304:Drivers/STM32F0xx_HAL_Driver/Src/stm32f0xx_hal_gpio.c **** 
 305:Drivers/STM32F0xx_HAL_Driver/Src/stm32f0xx_hal_gpio.c ****   /* Check the parameters */
 306:Drivers/STM32F0xx_HAL_Driver/Src/stm32f0xx_hal_gpio.c ****   assert_param(IS_GPIO_ALL_INSTANCE(GPIOx));
 669              		.loc 1 306 3 view .LVU222
 307:Drivers/STM32F0xx_HAL_Driver/Src/stm32f0xx_hal_gpio.c ****   assert_param(IS_GPIO_PIN(GPIO_Pin));
 670              		.loc 1 307 3 view .LVU223
 308:Drivers/STM32F0xx_HAL_Driver/Src/stm32f0xx_hal_gpio.c **** 
 309:Drivers/STM32F0xx_HAL_Driver/Src/stm32f0xx_hal_gpio.c ****   /* Configure the port pins */
 310:Drivers/STM32F0xx_HAL_Driver/Src/stm32f0xx_hal_gpio.c ****   while ((GPIO_Pin >> position) != 0x00u)
 671              		.loc 1 310 3 view .LVU224
 672              		.loc 1 310 9 view .LVU225
 300:Drivers/STM32F0xx_HAL_Driver/Src/stm32f0xx_hal_gpio.c ****   uint32_t position = 0x00u;
 673              		.loc 1 300 1 is_stmt 0 view .LVU226
 674 0000 F0B5     		push	{r4, r5, r6, r7, lr}
 675              	.LCFI3:
 676              		.cfi_def_cfa_offset 20
 677              		.cfi_offset 4, -20
 678              		.cfi_offset 5, -16
 679              		.cfi_offset 6, -12
 680              		.cfi_offset 7, -8
 681              		.cfi_offset 14, -4
 682 0002 DE46     		mov	lr, fp
 683 0004 5746     		mov	r7, r10
 684 0006 4E46     		mov	r6, r9
 685 0008 4546     		mov	r5, r8
 686 000a E0B5     		push	{r5, r6, r7, lr}
 687              	.LCFI4:
 688              		.cfi_def_cfa_offset 36
 689              		.cfi_offset 8, -36
 690              		.cfi_offset 9, -32
 691              		.cfi_offset 10, -28
 692              		.cfi_offset 11, -24
 301:Drivers/STM32F0xx_HAL_Driver/Src/stm32f0xx_hal_gpio.c ****   uint32_t iocurrent;
 693              		.loc 1 301 12 view .LVU227
 694 000c 0023     		movs	r3, #0
 300:Drivers/STM32F0xx_HAL_Driver/Src/stm32f0xx_hal_gpio.c ****   uint32_t position = 0x00u;
 695              		.loc 1 300 1 view .LVU228
 696 000e 83B0     		sub	sp, sp, #12
 697              	.LCFI5:
 698              		.cfi_def_cfa_offset 48
 699              		.loc 1 310 9 view .LVU229
 700 0010 0029     		cmp	r1, #0
 701 0012 62D0     		beq	.L37
 311:Drivers/STM32F0xx_HAL_Driver/Src/stm32f0xx_hal_gpio.c ****   {
 312:Drivers/STM32F0xx_HAL_Driver/Src/stm32f0xx_hal_gpio.c ****     /* Get current io position */
 313:Drivers/STM32F0xx_HAL_Driver/Src/stm32f0xx_hal_gpio.c ****     iocurrent = (GPIO_Pin) & (1uL << position);
 702              		.loc 1 313 35 view .LVU230
 703 0014 0122     		movs	r2, #1
 704 0016 9146     		mov	r9, r2
 314:Drivers/STM32F0xx_HAL_Driver/Src/stm32f0xx_hal_gpio.c **** 
 315:Drivers/STM32F0xx_HAL_Driver/Src/stm32f0xx_hal_gpio.c ****     if (iocurrent != 0x00u)
 316:Drivers/STM32F0xx_HAL_Driver/Src/stm32f0xx_hal_gpio.c ****     {
ARM GAS  C:\Users\rokko\AppData\Local\Temp\ccKJi3OA.s 			page 22


 317:Drivers/STM32F0xx_HAL_Driver/Src/stm32f0xx_hal_gpio.c ****       /*------------------------- EXTI Mode Configuration --------------------*/
 318:Drivers/STM32F0xx_HAL_Driver/Src/stm32f0xx_hal_gpio.c ****       /* Clear the External Interrupt or Event for the current IO */
 319:Drivers/STM32F0xx_HAL_Driver/Src/stm32f0xx_hal_gpio.c **** 
 320:Drivers/STM32F0xx_HAL_Driver/Src/stm32f0xx_hal_gpio.c ****       tmp = SYSCFG->EXTICR[position >> 2u];
 321:Drivers/STM32F0xx_HAL_Driver/Src/stm32f0xx_hal_gpio.c ****       tmp &= (0x0FuL << (4u * (position & 0x03u)));
 705              		.loc 1 321 41 view .LVU231
 706 0018 0232     		adds	r2, r2, #2
 707 001a 9346     		mov	fp, r2
 322:Drivers/STM32F0xx_HAL_Driver/Src/stm32f0xx_hal_gpio.c ****       if (tmp == (GPIO_GET_INDEX(GPIOx) << (4u * (position & 0x03u))))
 323:Drivers/STM32F0xx_HAL_Driver/Src/stm32f0xx_hal_gpio.c ****       {
 324:Drivers/STM32F0xx_HAL_Driver/Src/stm32f0xx_hal_gpio.c ****         /* Clear EXTI line configuration */
 325:Drivers/STM32F0xx_HAL_Driver/Src/stm32f0xx_hal_gpio.c ****         EXTI->IMR &= ~((uint32_t)iocurrent);
 708              		.loc 1 325 19 view .LVU232
 709 001c 384A     		ldr	r2, .L56
 710 001e 9446     		mov	ip, r2
 711 0020 41E0     		b	.L38
 712              	.LVL68:
 713              	.L55:
 322:Drivers/STM32F0xx_HAL_Driver/Src/stm32f0xx_hal_gpio.c ****       if (tmp == (GPIO_GET_INDEX(GPIOx) << (4u * (position & 0x03u))))
 714              		.loc 1 322 19 discriminator 1 view .LVU233
 715 0022 384C     		ldr	r4, .L56+4
 716 0024 A042     		cmp	r0, r4
 717 0026 5FD0     		beq	.L53
 322:Drivers/STM32F0xx_HAL_Driver/Src/stm32f0xx_hal_gpio.c ****       if (tmp == (GPIO_GET_INDEX(GPIOx) << (4u * (position & 0x03u))))
 718              		.loc 1 322 19 discriminator 3 view .LVU234
 719 0028 374C     		ldr	r4, .L56+8
 720 002a A042     		cmp	r0, r4
 721 002c 60D0     		beq	.L54
 322:Drivers/STM32F0xx_HAL_Driver/Src/stm32f0xx_hal_gpio.c ****       if (tmp == (GPIO_GET_INDEX(GPIOx) << (4u * (position & 0x03u))))
 722              		.loc 1 322 19 discriminator 5 view .LVU235
 723 002e 374C     		ldr	r4, .L56+12
 724 0030 A042     		cmp	r0, r4
 725 0032 61D0     		beq	.L43
 322:Drivers/STM32F0xx_HAL_Driver/Src/stm32f0xx_hal_gpio.c ****       if (tmp == (GPIO_GET_INDEX(GPIOx) << (4u * (position & 0x03u))))
 726              		.loc 1 322 41 view .LVU236
 727 0034 0524     		movs	r4, #5
 728 0036 AC40     		lsls	r4, r4, r5
 729 0038 2500     		movs	r5, r4
 730              	.L40:
 322:Drivers/STM32F0xx_HAL_Driver/Src/stm32f0xx_hal_gpio.c ****       if (tmp == (GPIO_GET_INDEX(GPIOx) << (4u * (position & 0x03u))))
 731              		.loc 1 322 10 discriminator 16 view .LVU237
 732 003a AE42     		cmp	r6, r5
 733 003c 11D1     		bne	.L44
 734              		.loc 1 325 9 is_stmt 1 view .LVU238
 735              		.loc 1 325 19 is_stmt 0 view .LVU239
 736 003e 6446     		mov	r4, ip
 737 0040 2568     		ldr	r5, [r4]
 326:Drivers/STM32F0xx_HAL_Driver/Src/stm32f0xx_hal_gpio.c ****         EXTI->EMR &= ~((uint32_t)iocurrent);
 327:Drivers/STM32F0xx_HAL_Driver/Src/stm32f0xx_hal_gpio.c ****         
 328:Drivers/STM32F0xx_HAL_Driver/Src/stm32f0xx_hal_gpio.c ****         /* Clear Rising Falling edge configuration */
 329:Drivers/STM32F0xx_HAL_Driver/Src/stm32f0xx_hal_gpio.c ****         EXTI->RTSR &= ~((uint32_t)iocurrent);
 330:Drivers/STM32F0xx_HAL_Driver/Src/stm32f0xx_hal_gpio.c ****         EXTI->FTSR &= ~((uint32_t)iocurrent);
 331:Drivers/STM32F0xx_HAL_Driver/Src/stm32f0xx_hal_gpio.c **** 
 332:Drivers/STM32F0xx_HAL_Driver/Src/stm32f0xx_hal_gpio.c ****         /* Configure the External Interrupt or event for the current IO */
 333:Drivers/STM32F0xx_HAL_Driver/Src/stm32f0xx_hal_gpio.c ****         tmp = 0x0FuL << (4u * (position & 0x03u));
 334:Drivers/STM32F0xx_HAL_Driver/Src/stm32f0xx_hal_gpio.c ****         SYSCFG->EXTICR[position >> 2u] &= ~tmp;
 738              		.loc 1 334 40 view .LVU240
ARM GAS  C:\Users\rokko\AppData\Local\Temp\ccKJi3OA.s 			page 23


 739 0042 019E     		ldr	r6, [sp, #4]
 740              	.LVL69:
 325:Drivers/STM32F0xx_HAL_Driver/Src/stm32f0xx_hal_gpio.c ****         EXTI->EMR &= ~((uint32_t)iocurrent);
 741              		.loc 1 325 19 view .LVU241
 742 0044 BD43     		bics	r5, r7
 743 0046 2560     		str	r5, [r4]
 326:Drivers/STM32F0xx_HAL_Driver/Src/stm32f0xx_hal_gpio.c ****         EXTI->EMR &= ~((uint32_t)iocurrent);
 744              		.loc 1 326 9 is_stmt 1 view .LVU242
 326:Drivers/STM32F0xx_HAL_Driver/Src/stm32f0xx_hal_gpio.c ****         EXTI->EMR &= ~((uint32_t)iocurrent);
 745              		.loc 1 326 19 is_stmt 0 view .LVU243
 746 0048 6568     		ldr	r5, [r4, #4]
 747 004a BD43     		bics	r5, r7
 748 004c 6560     		str	r5, [r4, #4]
 329:Drivers/STM32F0xx_HAL_Driver/Src/stm32f0xx_hal_gpio.c ****         EXTI->FTSR &= ~((uint32_t)iocurrent);
 749              		.loc 1 329 9 is_stmt 1 view .LVU244
 329:Drivers/STM32F0xx_HAL_Driver/Src/stm32f0xx_hal_gpio.c ****         EXTI->FTSR &= ~((uint32_t)iocurrent);
 750              		.loc 1 329 20 is_stmt 0 view .LVU245
 751 004e A568     		ldr	r5, [r4, #8]
 752 0050 BD43     		bics	r5, r7
 753 0052 A560     		str	r5, [r4, #8]
 330:Drivers/STM32F0xx_HAL_Driver/Src/stm32f0xx_hal_gpio.c **** 
 754              		.loc 1 330 9 is_stmt 1 view .LVU246
 330:Drivers/STM32F0xx_HAL_Driver/Src/stm32f0xx_hal_gpio.c **** 
 755              		.loc 1 330 20 is_stmt 0 view .LVU247
 756 0054 E568     		ldr	r5, [r4, #12]
 757 0056 BD43     		bics	r5, r7
 758 0058 E560     		str	r5, [r4, #12]
 333:Drivers/STM32F0xx_HAL_Driver/Src/stm32f0xx_hal_gpio.c ****         SYSCFG->EXTICR[position >> 2u] &= ~tmp;
 759              		.loc 1 333 9 is_stmt 1 view .LVU248
 760              	.LVL70:
 761              		.loc 1 334 9 view .LVU249
 762              		.loc 1 334 40 is_stmt 0 view .LVU250
 763 005a 4446     		mov	r4, r8
 764 005c B568     		ldr	r5, [r6, #8]
 765 005e A543     		bics	r5, r4
 766 0060 B560     		str	r5, [r6, #8]
 767              	.LVL71:
 768              	.L44:
 335:Drivers/STM32F0xx_HAL_Driver/Src/stm32f0xx_hal_gpio.c ****       }
 336:Drivers/STM32F0xx_HAL_Driver/Src/stm32f0xx_hal_gpio.c **** 
 337:Drivers/STM32F0xx_HAL_Driver/Src/stm32f0xx_hal_gpio.c ****       /*------------------------- GPIO Mode Configuration --------------------*/
 338:Drivers/STM32F0xx_HAL_Driver/Src/stm32f0xx_hal_gpio.c ****       /* Configure IO Direction in Input Floating Mode */
 339:Drivers/STM32F0xx_HAL_Driver/Src/stm32f0xx_hal_gpio.c ****       GPIOx->MODER &= ~(GPIO_MODER_MODER0 << (position * 2u));
 769              		.loc 1 339 7 is_stmt 1 view .LVU251
 770              		.loc 1 339 43 is_stmt 0 view .LVU252
 771 0062 5E46     		mov	r6, fp
 772 0064 5D00     		lsls	r5, r3, #1
 773 0066 AE40     		lsls	r6, r6, r5
 774              		.loc 1 339 20 view .LVU253
 775 0068 0468     		ldr	r4, [r0]
 776              		.loc 1 339 43 view .LVU254
 777 006a 3500     		movs	r5, r6
 778              		.loc 1 339 20 view .LVU255
 779 006c B443     		bics	r4, r6
 780 006e 0460     		str	r4, [r0]
 340:Drivers/STM32F0xx_HAL_Driver/Src/stm32f0xx_hal_gpio.c **** 
 341:Drivers/STM32F0xx_HAL_Driver/Src/stm32f0xx_hal_gpio.c ****       /* Configure the default Alternate Function in current IO */
ARM GAS  C:\Users\rokko\AppData\Local\Temp\ccKJi3OA.s 			page 24


 342:Drivers/STM32F0xx_HAL_Driver/Src/stm32f0xx_hal_gpio.c ****       GPIOx->AFR[position >> 3u] &= ~(0xFu << ((uint32_t)(position & 0x07u) * 4u)) ;
 781              		.loc 1 342 7 is_stmt 1 view .LVU256
 782              		.loc 1 342 34 is_stmt 0 view .LVU257
 783 0070 DC08     		lsrs	r4, r3, #3
 784 0072 A400     		lsls	r4, r4, #2
 785 0074 0419     		adds	r4, r0, r4
 786 0076 266A     		ldr	r6, [r4, #32]
 787              		.loc 1 342 48 view .LVU258
 788 0078 0727     		movs	r7, #7
 789              	.LVL72:
 790              		.loc 1 342 34 view .LVU259
 791 007a B046     		mov	r8, r6
 792              		.loc 1 342 44 view .LVU260
 793 007c 0F26     		movs	r6, #15
 794              		.loc 1 342 48 view .LVU261
 795 007e 1F40     		ands	r7, r3
 796              		.loc 1 342 77 view .LVU262
 797 0080 BF00     		lsls	r7, r7, #2
 798              		.loc 1 342 44 view .LVU263
 799 0082 BE40     		lsls	r6, r6, r7
 800 0084 3700     		movs	r7, r6
 801              		.loc 1 342 34 view .LVU264
 802 0086 4646     		mov	r6, r8
 803 0088 BE43     		bics	r6, r7
 804 008a 2662     		str	r6, [r4, #32]
 343:Drivers/STM32F0xx_HAL_Driver/Src/stm32f0xx_hal_gpio.c **** 
 344:Drivers/STM32F0xx_HAL_Driver/Src/stm32f0xx_hal_gpio.c ****       /* Deactivate the Pull-up and Pull-down resistor for the current IO */
 345:Drivers/STM32F0xx_HAL_Driver/Src/stm32f0xx_hal_gpio.c ****       GPIOx->PUPDR &= ~(GPIO_PUPDR_PUPDR0 << (position * 2u));
 805              		.loc 1 345 7 is_stmt 1 view .LVU265
 806              		.loc 1 345 20 is_stmt 0 view .LVU266
 807 008c C468     		ldr	r4, [r0, #12]
 808 008e AC43     		bics	r4, r5
 809 0090 C460     		str	r4, [r0, #12]
 346:Drivers/STM32F0xx_HAL_Driver/Src/stm32f0xx_hal_gpio.c **** 
 347:Drivers/STM32F0xx_HAL_Driver/Src/stm32f0xx_hal_gpio.c ****       /* Configure the default value IO Output Type */
 348:Drivers/STM32F0xx_HAL_Driver/Src/stm32f0xx_hal_gpio.c ****       GPIOx->OTYPER  &= ~(GPIO_OTYPER_OT_0 << position) ;
 810              		.loc 1 348 7 is_stmt 1 view .LVU267
 811              		.loc 1 348 22 is_stmt 0 view .LVU268
 812 0092 4468     		ldr	r4, [r0, #4]
 813 0094 9443     		bics	r4, r2
 814 0096 4460     		str	r4, [r0, #4]
 349:Drivers/STM32F0xx_HAL_Driver/Src/stm32f0xx_hal_gpio.c **** 
 350:Drivers/STM32F0xx_HAL_Driver/Src/stm32f0xx_hal_gpio.c ****       /* Configure the default value for IO Speed */
 351:Drivers/STM32F0xx_HAL_Driver/Src/stm32f0xx_hal_gpio.c ****       GPIOx->OSPEEDR &= ~(GPIO_OSPEEDER_OSPEEDR0 << (position * 2u));
 815              		.loc 1 351 7 is_stmt 1 view .LVU269
 816              		.loc 1 351 22 is_stmt 0 view .LVU270
 817 0098 8268     		ldr	r2, [r0, #8]
 818              	.LVL73:
 819              		.loc 1 351 22 view .LVU271
 820 009a AA43     		bics	r2, r5
 821 009c 8260     		str	r2, [r0, #8]
 822              	.L39:
 352:Drivers/STM32F0xx_HAL_Driver/Src/stm32f0xx_hal_gpio.c **** 
 353:Drivers/STM32F0xx_HAL_Driver/Src/stm32f0xx_hal_gpio.c ****     }
 354:Drivers/STM32F0xx_HAL_Driver/Src/stm32f0xx_hal_gpio.c **** 
 355:Drivers/STM32F0xx_HAL_Driver/Src/stm32f0xx_hal_gpio.c ****     position++;
 823              		.loc 1 355 5 is_stmt 1 view .LVU272
ARM GAS  C:\Users\rokko\AppData\Local\Temp\ccKJi3OA.s 			page 25


 310:Drivers/STM32F0xx_HAL_Driver/Src/stm32f0xx_hal_gpio.c ****   {
 824              		.loc 1 310 20 is_stmt 0 view .LVU273
 825 009e 0A00     		movs	r2, r1
 826              		.loc 1 355 13 view .LVU274
 827 00a0 0133     		adds	r3, r3, #1
 828              	.LVL74:
 310:Drivers/STM32F0xx_HAL_Driver/Src/stm32f0xx_hal_gpio.c ****   {
 829              		.loc 1 310 9 is_stmt 1 view .LVU275
 310:Drivers/STM32F0xx_HAL_Driver/Src/stm32f0xx_hal_gpio.c ****   {
 830              		.loc 1 310 20 is_stmt 0 view .LVU276
 831 00a2 DA40     		lsrs	r2, r2, r3
 310:Drivers/STM32F0xx_HAL_Driver/Src/stm32f0xx_hal_gpio.c ****   {
 832              		.loc 1 310 9 view .LVU277
 833 00a4 19D0     		beq	.L37
 834              	.LVL75:
 835              	.L38:
 313:Drivers/STM32F0xx_HAL_Driver/Src/stm32f0xx_hal_gpio.c **** 
 836              		.loc 1 313 5 is_stmt 1 view .LVU278
 313:Drivers/STM32F0xx_HAL_Driver/Src/stm32f0xx_hal_gpio.c **** 
 837              		.loc 1 313 35 is_stmt 0 view .LVU279
 838 00a6 4A46     		mov	r2, r9
 313:Drivers/STM32F0xx_HAL_Driver/Src/stm32f0xx_hal_gpio.c **** 
 839              		.loc 1 313 15 view .LVU280
 840 00a8 0F00     		movs	r7, r1
 313:Drivers/STM32F0xx_HAL_Driver/Src/stm32f0xx_hal_gpio.c **** 
 841              		.loc 1 313 35 view .LVU281
 842 00aa 9A40     		lsls	r2, r2, r3
 313:Drivers/STM32F0xx_HAL_Driver/Src/stm32f0xx_hal_gpio.c **** 
 843              		.loc 1 313 15 view .LVU282
 844 00ac 1740     		ands	r7, r2
 845              	.LVL76:
 315:Drivers/STM32F0xx_HAL_Driver/Src/stm32f0xx_hal_gpio.c ****     {
 846              		.loc 1 315 5 is_stmt 1 view .LVU283
 315:Drivers/STM32F0xx_HAL_Driver/Src/stm32f0xx_hal_gpio.c ****     {
 847              		.loc 1 315 8 is_stmt 0 view .LVU284
 848 00ae 1142     		tst	r1, r2
 849 00b0 F5D0     		beq	.L39
 320:Drivers/STM32F0xx_HAL_Driver/Src/stm32f0xx_hal_gpio.c ****       tmp &= (0x0FuL << (4u * (position & 0x03u)));
 850              		.loc 1 320 7 is_stmt 1 view .LVU285
 851 00b2 174D     		ldr	r5, .L56+16
 320:Drivers/STM32F0xx_HAL_Driver/Src/stm32f0xx_hal_gpio.c ****       tmp &= (0x0FuL << (4u * (position & 0x03u)));
 852              		.loc 1 320 37 is_stmt 0 view .LVU286
 853 00b4 9C08     		lsrs	r4, r3, #2
 854 00b6 A846     		mov	r8, r5
 855 00b8 A400     		lsls	r4, r4, #2
 321:Drivers/STM32F0xx_HAL_Driver/Src/stm32f0xx_hal_gpio.c ****       if (tmp == (GPIO_GET_INDEX(GPIOx) << (4u * (position & 0x03u))))
 856              		.loc 1 321 41 view .LVU287
 857 00ba 5D46     		mov	r5, fp
 858 00bc 4444     		add	r4, r4, r8
 320:Drivers/STM32F0xx_HAL_Driver/Src/stm32f0xx_hal_gpio.c ****       tmp &= (0x0FuL << (4u * (position & 0x03u)));
 859              		.loc 1 320 11 view .LVU288
 860 00be A668     		ldr	r6, [r4, #8]
 861              	.LVL77:
 321:Drivers/STM32F0xx_HAL_Driver/Src/stm32f0xx_hal_gpio.c ****       if (tmp == (GPIO_GET_INDEX(GPIOx) << (4u * (position & 0x03u))))
 862              		.loc 1 321 7 is_stmt 1 view .LVU289
 863 00c0 0194     		str	r4, [sp, #4]
 321:Drivers/STM32F0xx_HAL_Driver/Src/stm32f0xx_hal_gpio.c ****       if (tmp == (GPIO_GET_INDEX(GPIOx) << (4u * (position & 0x03u))))
ARM GAS  C:\Users\rokko\AppData\Local\Temp\ccKJi3OA.s 			page 26


 864              		.loc 1 321 22 is_stmt 0 view .LVU290
 865 00c2 0F24     		movs	r4, #15
 321:Drivers/STM32F0xx_HAL_Driver/Src/stm32f0xx_hal_gpio.c ****       if (tmp == (GPIO_GET_INDEX(GPIOx) << (4u * (position & 0x03u))))
 866              		.loc 1 321 41 view .LVU291
 867 00c4 1D40     		ands	r5, r3
 321:Drivers/STM32F0xx_HAL_Driver/Src/stm32f0xx_hal_gpio.c ****       if (tmp == (GPIO_GET_INDEX(GPIOx) << (4u * (position & 0x03u))))
 868              		.loc 1 321 29 view .LVU292
 869 00c6 AD00     		lsls	r5, r5, #2
 321:Drivers/STM32F0xx_HAL_Driver/Src/stm32f0xx_hal_gpio.c ****       if (tmp == (GPIO_GET_INDEX(GPIOx) << (4u * (position & 0x03u))))
 870              		.loc 1 321 22 view .LVU293
 871 00c8 AC40     		lsls	r4, r4, r5
 872 00ca A046     		mov	r8, r4
 321:Drivers/STM32F0xx_HAL_Driver/Src/stm32f0xx_hal_gpio.c ****       if (tmp == (GPIO_GET_INDEX(GPIOx) << (4u * (position & 0x03u))))
 873              		.loc 1 321 11 view .LVU294
 874 00cc 2640     		ands	r6, r4
 875              	.LVL78:
 322:Drivers/STM32F0xx_HAL_Driver/Src/stm32f0xx_hal_gpio.c ****       {
 876              		.loc 1 322 7 is_stmt 1 view .LVU295
 322:Drivers/STM32F0xx_HAL_Driver/Src/stm32f0xx_hal_gpio.c ****       {
 877              		.loc 1 322 19 is_stmt 0 view .LVU296
 878 00ce 9024     		movs	r4, #144
 879 00d0 E405     		lsls	r4, r4, #23
 880 00d2 A042     		cmp	r0, r4
 881 00d4 A5D1     		bne	.L55
 882 00d6 0025     		movs	r5, #0
 883 00d8 AFE7     		b	.L40
 884              	.LVL79:
 885              	.L37:
 356:Drivers/STM32F0xx_HAL_Driver/Src/stm32f0xx_hal_gpio.c ****   }
 357:Drivers/STM32F0xx_HAL_Driver/Src/stm32f0xx_hal_gpio.c **** }
 886              		.loc 1 357 1 view .LVU297
 887 00da 03B0     		add	sp, sp, #12
 888              		@ sp needed
 889 00dc F0BC     		pop	{r4, r5, r6, r7}
 890 00de BB46     		mov	fp, r7
 891 00e0 B246     		mov	r10, r6
 892 00e2 A946     		mov	r9, r5
 893 00e4 A046     		mov	r8, r4
 894 00e6 F0BD     		pop	{r4, r5, r6, r7, pc}
 895              	.LVL80:
 896              	.L53:
 322:Drivers/STM32F0xx_HAL_Driver/Src/stm32f0xx_hal_gpio.c ****       {
 897              		.loc 1 322 41 view .LVU298
 898 00e8 4C46     		mov	r4, r9
 899 00ea AC40     		lsls	r4, r4, r5
 900 00ec 2500     		movs	r5, r4
 901 00ee A4E7     		b	.L40
 902              	.L54:
 903 00f0 0224     		movs	r4, #2
 904 00f2 AC40     		lsls	r4, r4, r5
 905 00f4 2500     		movs	r5, r4
 906 00f6 A0E7     		b	.L40
 907              	.L43:
 908 00f8 5C46     		mov	r4, fp
 909 00fa AC40     		lsls	r4, r4, r5
 910 00fc 2500     		movs	r5, r4
 911 00fe 9CE7     		b	.L40
ARM GAS  C:\Users\rokko\AppData\Local\Temp\ccKJi3OA.s 			page 27


 912              	.L57:
 913              		.align	2
 914              	.L56:
 915 0100 00040140 		.word	1073808384
 916 0104 00040048 		.word	1207960576
 917 0108 00080048 		.word	1207961600
 918 010c 000C0048 		.word	1207962624
 919 0110 00000140 		.word	1073807360
 920              		.cfi_endproc
 921              	.LFE41:
 923              		.section	.text.HAL_GPIO_ReadPin,"ax",%progbits
 924              		.align	1
 925              		.p2align 2,,3
 926              		.global	HAL_GPIO_ReadPin
 927              		.syntax unified
 928              		.code	16
 929              		.thumb_func
 931              	HAL_GPIO_ReadPin:
 932              	.LVL81:
 933              	.LFB42:
 358:Drivers/STM32F0xx_HAL_Driver/Src/stm32f0xx_hal_gpio.c **** 
 359:Drivers/STM32F0xx_HAL_Driver/Src/stm32f0xx_hal_gpio.c **** /**
 360:Drivers/STM32F0xx_HAL_Driver/Src/stm32f0xx_hal_gpio.c ****   * @}
 361:Drivers/STM32F0xx_HAL_Driver/Src/stm32f0xx_hal_gpio.c ****   */
 362:Drivers/STM32F0xx_HAL_Driver/Src/stm32f0xx_hal_gpio.c **** 
 363:Drivers/STM32F0xx_HAL_Driver/Src/stm32f0xx_hal_gpio.c **** /** @defgroup GPIO_Exported_Functions_Group2 IO operation functions 
 364:Drivers/STM32F0xx_HAL_Driver/Src/stm32f0xx_hal_gpio.c ****  *  @brief GPIO Read, Write, Toggle, Lock and EXTI management functions.
 365:Drivers/STM32F0xx_HAL_Driver/Src/stm32f0xx_hal_gpio.c ****  *
 366:Drivers/STM32F0xx_HAL_Driver/Src/stm32f0xx_hal_gpio.c **** @verbatim   
 367:Drivers/STM32F0xx_HAL_Driver/Src/stm32f0xx_hal_gpio.c ****  ===============================================================================
 368:Drivers/STM32F0xx_HAL_Driver/Src/stm32f0xx_hal_gpio.c ****                        ##### IO operation functions #####
 369:Drivers/STM32F0xx_HAL_Driver/Src/stm32f0xx_hal_gpio.c ****  ===============================================================================  
 370:Drivers/STM32F0xx_HAL_Driver/Src/stm32f0xx_hal_gpio.c **** 
 371:Drivers/STM32F0xx_HAL_Driver/Src/stm32f0xx_hal_gpio.c **** @endverbatim
 372:Drivers/STM32F0xx_HAL_Driver/Src/stm32f0xx_hal_gpio.c ****   * @{
 373:Drivers/STM32F0xx_HAL_Driver/Src/stm32f0xx_hal_gpio.c ****   */
 374:Drivers/STM32F0xx_HAL_Driver/Src/stm32f0xx_hal_gpio.c **** 
 375:Drivers/STM32F0xx_HAL_Driver/Src/stm32f0xx_hal_gpio.c **** /**
 376:Drivers/STM32F0xx_HAL_Driver/Src/stm32f0xx_hal_gpio.c ****   * @brief  Read the specified input port pin.
 377:Drivers/STM32F0xx_HAL_Driver/Src/stm32f0xx_hal_gpio.c ****   * @param  GPIOx where x can be (A..F) to select the GPIO peripheral for STM32F0 family
 378:Drivers/STM32F0xx_HAL_Driver/Src/stm32f0xx_hal_gpio.c ****   * @param  GPIO_Pin specifies the port bit to read.
 379:Drivers/STM32F0xx_HAL_Driver/Src/stm32f0xx_hal_gpio.c ****   *         This parameter can be GPIO_PIN_x where x can be (0..15).
 380:Drivers/STM32F0xx_HAL_Driver/Src/stm32f0xx_hal_gpio.c ****   * @retval The input port pin value.
 381:Drivers/STM32F0xx_HAL_Driver/Src/stm32f0xx_hal_gpio.c ****   */
 382:Drivers/STM32F0xx_HAL_Driver/Src/stm32f0xx_hal_gpio.c **** GPIO_PinState HAL_GPIO_ReadPin(GPIO_TypeDef* GPIOx, uint16_t GPIO_Pin)
 383:Drivers/STM32F0xx_HAL_Driver/Src/stm32f0xx_hal_gpio.c **** {
 934              		.loc 1 383 1 is_stmt 1 view -0
 935              		.cfi_startproc
 936              		@ args = 0, pretend = 0, frame = 0
 937              		@ frame_needed = 0, uses_anonymous_args = 0
 938              		@ link register save eliminated.
 384:Drivers/STM32F0xx_HAL_Driver/Src/stm32f0xx_hal_gpio.c ****   GPIO_PinState bitstatus;
 939              		.loc 1 384 3 view .LVU300
 385:Drivers/STM32F0xx_HAL_Driver/Src/stm32f0xx_hal_gpio.c **** 
 386:Drivers/STM32F0xx_HAL_Driver/Src/stm32f0xx_hal_gpio.c ****   /* Check the parameters */
 387:Drivers/STM32F0xx_HAL_Driver/Src/stm32f0xx_hal_gpio.c ****   assert_param(IS_GPIO_PIN(GPIO_Pin));
 940              		.loc 1 387 3 view .LVU301
ARM GAS  C:\Users\rokko\AppData\Local\Temp\ccKJi3OA.s 			page 28


 388:Drivers/STM32F0xx_HAL_Driver/Src/stm32f0xx_hal_gpio.c **** 
 389:Drivers/STM32F0xx_HAL_Driver/Src/stm32f0xx_hal_gpio.c ****   if ((GPIOx->IDR & GPIO_Pin) != (uint32_t)GPIO_PIN_RESET)
 941              		.loc 1 389 3 view .LVU302
 942              		.loc 1 389 13 is_stmt 0 view .LVU303
 943 0000 0069     		ldr	r0, [r0, #16]
 944              	.LVL82:
 390:Drivers/STM32F0xx_HAL_Driver/Src/stm32f0xx_hal_gpio.c ****   {
 391:Drivers/STM32F0xx_HAL_Driver/Src/stm32f0xx_hal_gpio.c ****     bitstatus = GPIO_PIN_SET;
 392:Drivers/STM32F0xx_HAL_Driver/Src/stm32f0xx_hal_gpio.c ****   }
 393:Drivers/STM32F0xx_HAL_Driver/Src/stm32f0xx_hal_gpio.c ****   else
 394:Drivers/STM32F0xx_HAL_Driver/Src/stm32f0xx_hal_gpio.c ****   {
 395:Drivers/STM32F0xx_HAL_Driver/Src/stm32f0xx_hal_gpio.c ****     bitstatus = GPIO_PIN_RESET;
 396:Drivers/STM32F0xx_HAL_Driver/Src/stm32f0xx_hal_gpio.c ****   }
 397:Drivers/STM32F0xx_HAL_Driver/Src/stm32f0xx_hal_gpio.c ****   return bitstatus;
 945              		.loc 1 397 3 is_stmt 1 view .LVU304
 398:Drivers/STM32F0xx_HAL_Driver/Src/stm32f0xx_hal_gpio.c ****   }
 946              		.loc 1 398 3 is_stmt 0 view .LVU305
 947              		@ sp needed
 389:Drivers/STM32F0xx_HAL_Driver/Src/stm32f0xx_hal_gpio.c ****   {
 948              		.loc 1 389 19 view .LVU306
 949 0002 0840     		ands	r0, r1
 950              	.LVL83:
 389:Drivers/STM32F0xx_HAL_Driver/Src/stm32f0xx_hal_gpio.c ****   {
 951              		.loc 1 389 6 view .LVU307
 952 0004 431E     		subs	r3, r0, #1
 953 0006 9841     		sbcs	r0, r0, r3
 397:Drivers/STM32F0xx_HAL_Driver/Src/stm32f0xx_hal_gpio.c ****   }
 954              		.loc 1 397 10 view .LVU308
 955 0008 C0B2     		uxtb	r0, r0
 956              		.loc 1 398 3 view .LVU309
 957 000a 7047     		bx	lr
 958              		.cfi_endproc
 959              	.LFE42:
 961              		.section	.text.HAL_GPIO_WritePin,"ax",%progbits
 962              		.align	1
 963              		.p2align 2,,3
 964              		.global	HAL_GPIO_WritePin
 965              		.syntax unified
 966              		.code	16
 967              		.thumb_func
 969              	HAL_GPIO_WritePin:
 970              	.LVL84:
 971              	.LFB43:
 399:Drivers/STM32F0xx_HAL_Driver/Src/stm32f0xx_hal_gpio.c **** 
 400:Drivers/STM32F0xx_HAL_Driver/Src/stm32f0xx_hal_gpio.c **** /**
 401:Drivers/STM32F0xx_HAL_Driver/Src/stm32f0xx_hal_gpio.c ****   * @brief  Set or clear the selected data port bit.
 402:Drivers/STM32F0xx_HAL_Driver/Src/stm32f0xx_hal_gpio.c ****   * @note   This function uses GPIOx_BSRR and GPIOx_BRR registers to allow atomic read/modify
 403:Drivers/STM32F0xx_HAL_Driver/Src/stm32f0xx_hal_gpio.c ****   *         accesses. In this way, there is no risk of an IRQ occurring between
 404:Drivers/STM32F0xx_HAL_Driver/Src/stm32f0xx_hal_gpio.c ****   *         the read and the modify access.
 405:Drivers/STM32F0xx_HAL_Driver/Src/stm32f0xx_hal_gpio.c ****   *
 406:Drivers/STM32F0xx_HAL_Driver/Src/stm32f0xx_hal_gpio.c ****   * @param  GPIOx where x can be (A..H) to select the GPIO peripheral for STM32F0 family
 407:Drivers/STM32F0xx_HAL_Driver/Src/stm32f0xx_hal_gpio.c ****   * @param  GPIO_Pin specifies the port bit to be written.
 408:Drivers/STM32F0xx_HAL_Driver/Src/stm32f0xx_hal_gpio.c ****   *          This parameter can be one of GPIO_PIN_x where x can be (0..15).
 409:Drivers/STM32F0xx_HAL_Driver/Src/stm32f0xx_hal_gpio.c ****   * @param  PinState specifies the value to be written to the selected bit.
 410:Drivers/STM32F0xx_HAL_Driver/Src/stm32f0xx_hal_gpio.c ****   *          This parameter can be one of the GPIO_PinState enum values:
 411:Drivers/STM32F0xx_HAL_Driver/Src/stm32f0xx_hal_gpio.c ****   *            @arg GPIO_PIN_RESET: to clear the port pin
 412:Drivers/STM32F0xx_HAL_Driver/Src/stm32f0xx_hal_gpio.c ****   *            @arg GPIO_PIN_SET: to set the port pin
ARM GAS  C:\Users\rokko\AppData\Local\Temp\ccKJi3OA.s 			page 29


 413:Drivers/STM32F0xx_HAL_Driver/Src/stm32f0xx_hal_gpio.c ****   * @retval None
 414:Drivers/STM32F0xx_HAL_Driver/Src/stm32f0xx_hal_gpio.c ****   */
 415:Drivers/STM32F0xx_HAL_Driver/Src/stm32f0xx_hal_gpio.c **** void HAL_GPIO_WritePin(GPIO_TypeDef* GPIOx, uint16_t GPIO_Pin, GPIO_PinState PinState)
 416:Drivers/STM32F0xx_HAL_Driver/Src/stm32f0xx_hal_gpio.c **** {
 972              		.loc 1 416 1 is_stmt 1 view -0
 973              		.cfi_startproc
 974              		@ args = 0, pretend = 0, frame = 0
 975              		@ frame_needed = 0, uses_anonymous_args = 0
 976              		@ link register save eliminated.
 417:Drivers/STM32F0xx_HAL_Driver/Src/stm32f0xx_hal_gpio.c ****   /* Check the parameters */
 418:Drivers/STM32F0xx_HAL_Driver/Src/stm32f0xx_hal_gpio.c ****   assert_param(IS_GPIO_PIN(GPIO_Pin));
 977              		.loc 1 418 3 view .LVU311
 419:Drivers/STM32F0xx_HAL_Driver/Src/stm32f0xx_hal_gpio.c ****   assert_param(IS_GPIO_PIN_ACTION(PinState));
 978              		.loc 1 419 3 view .LVU312
 420:Drivers/STM32F0xx_HAL_Driver/Src/stm32f0xx_hal_gpio.c **** 
 421:Drivers/STM32F0xx_HAL_Driver/Src/stm32f0xx_hal_gpio.c ****   if (PinState != GPIO_PIN_RESET)
 979              		.loc 1 421 3 view .LVU313
 980              		.loc 1 421 6 is_stmt 0 view .LVU314
 981 0000 002A     		cmp	r2, #0
 982 0002 01D0     		beq	.L60
 422:Drivers/STM32F0xx_HAL_Driver/Src/stm32f0xx_hal_gpio.c ****   {
 423:Drivers/STM32F0xx_HAL_Driver/Src/stm32f0xx_hal_gpio.c ****     GPIOx->BSRR = (uint32_t)GPIO_Pin;
 983              		.loc 1 423 5 is_stmt 1 view .LVU315
 984              		.loc 1 423 17 is_stmt 0 view .LVU316
 985 0004 8161     		str	r1, [r0, #24]
 986              	.L59:
 424:Drivers/STM32F0xx_HAL_Driver/Src/stm32f0xx_hal_gpio.c ****   }
 425:Drivers/STM32F0xx_HAL_Driver/Src/stm32f0xx_hal_gpio.c ****   else
 426:Drivers/STM32F0xx_HAL_Driver/Src/stm32f0xx_hal_gpio.c ****   {
 427:Drivers/STM32F0xx_HAL_Driver/Src/stm32f0xx_hal_gpio.c ****     GPIOx->BRR = (uint32_t)GPIO_Pin;
 428:Drivers/STM32F0xx_HAL_Driver/Src/stm32f0xx_hal_gpio.c ****   }
 429:Drivers/STM32F0xx_HAL_Driver/Src/stm32f0xx_hal_gpio.c **** }
 987              		.loc 1 429 1 view .LVU317
 988              		@ sp needed
 989 0006 7047     		bx	lr
 990              	.L60:
 427:Drivers/STM32F0xx_HAL_Driver/Src/stm32f0xx_hal_gpio.c ****   }
 991              		.loc 1 427 5 is_stmt 1 view .LVU318
 427:Drivers/STM32F0xx_HAL_Driver/Src/stm32f0xx_hal_gpio.c ****   }
 992              		.loc 1 427 16 is_stmt 0 view .LVU319
 993 0008 8162     		str	r1, [r0, #40]
 994              		.loc 1 429 1 view .LVU320
 995 000a FCE7     		b	.L59
 996              		.cfi_endproc
 997              	.LFE43:
 999              		.section	.text.HAL_GPIO_TogglePin,"ax",%progbits
 1000              		.align	1
 1001              		.p2align 2,,3
 1002              		.global	HAL_GPIO_TogglePin
 1003              		.syntax unified
 1004              		.code	16
 1005              		.thumb_func
 1007              	HAL_GPIO_TogglePin:
 1008              	.LVL85:
 1009              	.LFB44:
 430:Drivers/STM32F0xx_HAL_Driver/Src/stm32f0xx_hal_gpio.c ****   
 431:Drivers/STM32F0xx_HAL_Driver/Src/stm32f0xx_hal_gpio.c **** /**
ARM GAS  C:\Users\rokko\AppData\Local\Temp\ccKJi3OA.s 			page 30


 432:Drivers/STM32F0xx_HAL_Driver/Src/stm32f0xx_hal_gpio.c ****   * @brief  Toggle the specified GPIO pin.
 433:Drivers/STM32F0xx_HAL_Driver/Src/stm32f0xx_hal_gpio.c ****   * @param  GPIOx where x can be (A..F) to select the GPIO peripheral for STM32F0 family
 434:Drivers/STM32F0xx_HAL_Driver/Src/stm32f0xx_hal_gpio.c ****   * @param  GPIO_Pin specifies the pin to be toggled.
 435:Drivers/STM32F0xx_HAL_Driver/Src/stm32f0xx_hal_gpio.c ****   * @retval None
 436:Drivers/STM32F0xx_HAL_Driver/Src/stm32f0xx_hal_gpio.c ****   */
 437:Drivers/STM32F0xx_HAL_Driver/Src/stm32f0xx_hal_gpio.c **** void HAL_GPIO_TogglePin(GPIO_TypeDef* GPIOx, uint16_t GPIO_Pin)
 438:Drivers/STM32F0xx_HAL_Driver/Src/stm32f0xx_hal_gpio.c **** {
 1010              		.loc 1 438 1 is_stmt 1 view -0
 1011              		.cfi_startproc
 1012              		@ args = 0, pretend = 0, frame = 0
 1013              		@ frame_needed = 0, uses_anonymous_args = 0
 1014              		@ link register save eliminated.
 439:Drivers/STM32F0xx_HAL_Driver/Src/stm32f0xx_hal_gpio.c ****   uint32_t odr;
 1015              		.loc 1 439 3 view .LVU322
 440:Drivers/STM32F0xx_HAL_Driver/Src/stm32f0xx_hal_gpio.c **** 
 441:Drivers/STM32F0xx_HAL_Driver/Src/stm32f0xx_hal_gpio.c ****   /* Check the parameters */
 442:Drivers/STM32F0xx_HAL_Driver/Src/stm32f0xx_hal_gpio.c ****   assert_param(IS_GPIO_PIN(GPIO_Pin));
 1016              		.loc 1 442 3 view .LVU323
 443:Drivers/STM32F0xx_HAL_Driver/Src/stm32f0xx_hal_gpio.c **** 
 444:Drivers/STM32F0xx_HAL_Driver/Src/stm32f0xx_hal_gpio.c ****   /* get current Ouput Data Register value */
 445:Drivers/STM32F0xx_HAL_Driver/Src/stm32f0xx_hal_gpio.c ****   odr = GPIOx->ODR;
 1017              		.loc 1 445 3 view .LVU324
 1018              		.loc 1 445 7 is_stmt 0 view .LVU325
 1019 0000 4269     		ldr	r2, [r0, #20]
 1020              	.LVL86:
 446:Drivers/STM32F0xx_HAL_Driver/Src/stm32f0xx_hal_gpio.c **** 
 447:Drivers/STM32F0xx_HAL_Driver/Src/stm32f0xx_hal_gpio.c ****   /* Set selected pins that were at low level, and reset ones that were high */
 448:Drivers/STM32F0xx_HAL_Driver/Src/stm32f0xx_hal_gpio.c ****   GPIOx->BSRR = ((odr & GPIO_Pin) << GPIO_NUMBER) | (~odr & GPIO_Pin);
 1021              		.loc 1 448 3 is_stmt 1 view .LVU326
 449:Drivers/STM32F0xx_HAL_Driver/Src/stm32f0xx_hal_gpio.c **** }
 1022              		.loc 1 449 1 is_stmt 0 view .LVU327
 1023              		@ sp needed
 448:Drivers/STM32F0xx_HAL_Driver/Src/stm32f0xx_hal_gpio.c **** }
 1024              		.loc 1 448 23 view .LVU328
 1025 0002 1300     		movs	r3, r2
 1026 0004 0B40     		ands	r3, r1
 448:Drivers/STM32F0xx_HAL_Driver/Src/stm32f0xx_hal_gpio.c **** }
 1027              		.loc 1 448 35 view .LVU329
 1028 0006 1B04     		lsls	r3, r3, #16
 448:Drivers/STM32F0xx_HAL_Driver/Src/stm32f0xx_hal_gpio.c **** }
 1029              		.loc 1 448 59 view .LVU330
 1030 0008 9143     		bics	r1, r2
 1031              	.LVL87:
 448:Drivers/STM32F0xx_HAL_Driver/Src/stm32f0xx_hal_gpio.c **** }
 1032              		.loc 1 448 51 view .LVU331
 1033 000a 1943     		orrs	r1, r3
 448:Drivers/STM32F0xx_HAL_Driver/Src/stm32f0xx_hal_gpio.c **** }
 1034              		.loc 1 448 15 view .LVU332
 1035 000c 8161     		str	r1, [r0, #24]
 1036              		.loc 1 449 1 view .LVU333
 1037 000e 7047     		bx	lr
 1038              		.cfi_endproc
 1039              	.LFE44:
 1041              		.section	.text.HAL_GPIO_LockPin,"ax",%progbits
 1042              		.align	1
 1043              		.p2align 2,,3
 1044              		.global	HAL_GPIO_LockPin
ARM GAS  C:\Users\rokko\AppData\Local\Temp\ccKJi3OA.s 			page 31


 1045              		.syntax unified
 1046              		.code	16
 1047              		.thumb_func
 1049              	HAL_GPIO_LockPin:
 1050              	.LVL88:
 1051              	.LFB45:
 450:Drivers/STM32F0xx_HAL_Driver/Src/stm32f0xx_hal_gpio.c **** 
 451:Drivers/STM32F0xx_HAL_Driver/Src/stm32f0xx_hal_gpio.c **** /**
 452:Drivers/STM32F0xx_HAL_Driver/Src/stm32f0xx_hal_gpio.c **** * @brief  Locks GPIO Pins configuration registers.
 453:Drivers/STM32F0xx_HAL_Driver/Src/stm32f0xx_hal_gpio.c **** * @note   The locked registers are GPIOx_MODER, GPIOx_OTYPER, GPIOx_OSPEEDR,
 454:Drivers/STM32F0xx_HAL_Driver/Src/stm32f0xx_hal_gpio.c **** *         GPIOx_PUPDR, GPIOx_AFRL and GPIOx_AFRH.
 455:Drivers/STM32F0xx_HAL_Driver/Src/stm32f0xx_hal_gpio.c **** * @note   The configuration of the locked GPIO pins can no longer be modified
 456:Drivers/STM32F0xx_HAL_Driver/Src/stm32f0xx_hal_gpio.c **** *         until the next reset.
 457:Drivers/STM32F0xx_HAL_Driver/Src/stm32f0xx_hal_gpio.c ****   * @param  GPIOx where x can be (A..F) to select the GPIO peripheral for STM32F0 family
 458:Drivers/STM32F0xx_HAL_Driver/Src/stm32f0xx_hal_gpio.c ****   * @param  GPIO_Pin specifies the port bits to be locked.
 459:Drivers/STM32F0xx_HAL_Driver/Src/stm32f0xx_hal_gpio.c **** *         This parameter can be any combination of GPIO_Pin_x where x can be (0..15).
 460:Drivers/STM32F0xx_HAL_Driver/Src/stm32f0xx_hal_gpio.c **** * @retval None
 461:Drivers/STM32F0xx_HAL_Driver/Src/stm32f0xx_hal_gpio.c **** */
 462:Drivers/STM32F0xx_HAL_Driver/Src/stm32f0xx_hal_gpio.c **** HAL_StatusTypeDef HAL_GPIO_LockPin(GPIO_TypeDef* GPIOx, uint16_t GPIO_Pin)
 463:Drivers/STM32F0xx_HAL_Driver/Src/stm32f0xx_hal_gpio.c **** {
 1052              		.loc 1 463 1 is_stmt 1 view -0
 1053              		.cfi_startproc
 1054              		@ args = 0, pretend = 0, frame = 8
 1055              		@ frame_needed = 0, uses_anonymous_args = 0
 1056              		@ link register save eliminated.
 464:Drivers/STM32F0xx_HAL_Driver/Src/stm32f0xx_hal_gpio.c ****   __IO uint32_t tmp = GPIO_LCKR_LCKK;
 1057              		.loc 1 464 3 view .LVU335
 1058              		.loc 1 464 17 is_stmt 0 view .LVU336
 1059 0000 8023     		movs	r3, #128
 463:Drivers/STM32F0xx_HAL_Driver/Src/stm32f0xx_hal_gpio.c ****   __IO uint32_t tmp = GPIO_LCKR_LCKK;
 1060              		.loc 1 463 1 view .LVU337
 1061 0002 82B0     		sub	sp, sp, #8
 1062              	.LCFI6:
 1063              		.cfi_def_cfa_offset 8
 1064              		.loc 1 464 17 view .LVU338
 1065 0004 5B02     		lsls	r3, r3, #9
 1066 0006 0193     		str	r3, [sp, #4]
 465:Drivers/STM32F0xx_HAL_Driver/Src/stm32f0xx_hal_gpio.c **** 
 466:Drivers/STM32F0xx_HAL_Driver/Src/stm32f0xx_hal_gpio.c ****   /* Check the parameters */
 467:Drivers/STM32F0xx_HAL_Driver/Src/stm32f0xx_hal_gpio.c ****   assert_param(IS_GPIO_LOCK_INSTANCE(GPIOx));
 1067              		.loc 1 467 3 is_stmt 1 view .LVU339
 468:Drivers/STM32F0xx_HAL_Driver/Src/stm32f0xx_hal_gpio.c ****   assert_param(IS_GPIO_PIN(GPIO_Pin));
 1068              		.loc 1 468 3 view .LVU340
 469:Drivers/STM32F0xx_HAL_Driver/Src/stm32f0xx_hal_gpio.c **** 
 470:Drivers/STM32F0xx_HAL_Driver/Src/stm32f0xx_hal_gpio.c ****   /* Apply lock key write sequence */
 471:Drivers/STM32F0xx_HAL_Driver/Src/stm32f0xx_hal_gpio.c ****   SET_BIT(tmp, GPIO_Pin);
 1069              		.loc 1 471 3 view .LVU341
 1070 0008 019B     		ldr	r3, [sp, #4]
 1071 000a 0B43     		orrs	r3, r1
 1072 000c 0193     		str	r3, [sp, #4]
 472:Drivers/STM32F0xx_HAL_Driver/Src/stm32f0xx_hal_gpio.c ****   /* Set LCKx bit(s): LCKK='1' + LCK[15-0] */
 473:Drivers/STM32F0xx_HAL_Driver/Src/stm32f0xx_hal_gpio.c ****   GPIOx->LCKR = tmp;
 1073              		.loc 1 473 3 view .LVU342
 1074              		.loc 1 473 15 is_stmt 0 view .LVU343
 1075 000e 019B     		ldr	r3, [sp, #4]
 1076 0010 C361     		str	r3, [r0, #28]
 474:Drivers/STM32F0xx_HAL_Driver/Src/stm32f0xx_hal_gpio.c ****   /* Reset LCKx bit(s): LCKK='0' + LCK[15-0] */
ARM GAS  C:\Users\rokko\AppData\Local\Temp\ccKJi3OA.s 			page 32


 475:Drivers/STM32F0xx_HAL_Driver/Src/stm32f0xx_hal_gpio.c ****   GPIOx->LCKR = GPIO_Pin;
 1077              		.loc 1 475 3 is_stmt 1 view .LVU344
 1078              		.loc 1 475 15 is_stmt 0 view .LVU345
 1079 0012 C161     		str	r1, [r0, #28]
 476:Drivers/STM32F0xx_HAL_Driver/Src/stm32f0xx_hal_gpio.c ****   /* Set LCKx bit(s): LCKK='1' + LCK[15-0] */
 477:Drivers/STM32F0xx_HAL_Driver/Src/stm32f0xx_hal_gpio.c ****   GPIOx->LCKR = tmp;
 1080              		.loc 1 477 3 is_stmt 1 view .LVU346
 1081              		.loc 1 477 15 is_stmt 0 view .LVU347
 1082 0014 019B     		ldr	r3, [sp, #4]
 1083 0016 C361     		str	r3, [r0, #28]
 478:Drivers/STM32F0xx_HAL_Driver/Src/stm32f0xx_hal_gpio.c ****   /* Read LCKK register. This read is mandatory to complete key lock sequence */
 479:Drivers/STM32F0xx_HAL_Driver/Src/stm32f0xx_hal_gpio.c ****   tmp = GPIOx->LCKR;
 1084              		.loc 1 479 3 is_stmt 1 view .LVU348
 1085              		.loc 1 479 14 is_stmt 0 view .LVU349
 1086 0018 C369     		ldr	r3, [r0, #28]
 1087              		.loc 1 479 7 view .LVU350
 1088 001a 0193     		str	r3, [sp, #4]
 480:Drivers/STM32F0xx_HAL_Driver/Src/stm32f0xx_hal_gpio.c **** 
 481:Drivers/STM32F0xx_HAL_Driver/Src/stm32f0xx_hal_gpio.c ****   /* read again in order to confirm lock is active */
 482:Drivers/STM32F0xx_HAL_Driver/Src/stm32f0xx_hal_gpio.c ****  if((GPIOx->LCKR & GPIO_LCKR_LCKK) != 0x00u)
 1089              		.loc 1 482 2 is_stmt 1 view .LVU351
 1090              		.loc 1 482 11 is_stmt 0 view .LVU352
 1091 001c C369     		ldr	r3, [r0, #28]
 483:Drivers/STM32F0xx_HAL_Driver/Src/stm32f0xx_hal_gpio.c ****   {
 484:Drivers/STM32F0xx_HAL_Driver/Src/stm32f0xx_hal_gpio.c ****     return HAL_OK;
 485:Drivers/STM32F0xx_HAL_Driver/Src/stm32f0xx_hal_gpio.c ****   }
 486:Drivers/STM32F0xx_HAL_Driver/Src/stm32f0xx_hal_gpio.c ****   else
 487:Drivers/STM32F0xx_HAL_Driver/Src/stm32f0xx_hal_gpio.c ****   {
 488:Drivers/STM32F0xx_HAL_Driver/Src/stm32f0xx_hal_gpio.c ****     return HAL_ERROR;
 489:Drivers/STM32F0xx_HAL_Driver/Src/stm32f0xx_hal_gpio.c ****   }
 490:Drivers/STM32F0xx_HAL_Driver/Src/stm32f0xx_hal_gpio.c **** }
 1092              		.loc 1 490 1 view .LVU353
 1093 001e 0120     		movs	r0, #1
 1094              	.LVL89:
 482:Drivers/STM32F0xx_HAL_Driver/Src/stm32f0xx_hal_gpio.c ****   {
 1095              		.loc 1 482 4 view .LVU354
 1096 0020 1B0C     		lsrs	r3, r3, #16
 1097              		.loc 1 490 1 view .LVU355
 1098 0022 9843     		bics	r0, r3
 1099 0024 02B0     		add	sp, sp, #8
 1100              		@ sp needed
 1101 0026 7047     		bx	lr
 1102              		.cfi_endproc
 1103              	.LFE45:
 1105              		.section	.text.HAL_GPIO_EXTI_Callback,"ax",%progbits
 1106              		.align	1
 1107              		.p2align 2,,3
 1108              		.weak	HAL_GPIO_EXTI_Callback
 1109              		.syntax unified
 1110              		.code	16
 1111              		.thumb_func
 1113              	HAL_GPIO_EXTI_Callback:
 1114              	.LVL90:
 1115              	.LFB47:
 491:Drivers/STM32F0xx_HAL_Driver/Src/stm32f0xx_hal_gpio.c **** 
 492:Drivers/STM32F0xx_HAL_Driver/Src/stm32f0xx_hal_gpio.c **** /**
 493:Drivers/STM32F0xx_HAL_Driver/Src/stm32f0xx_hal_gpio.c ****   * @brief  Handle EXTI interrupt request.
ARM GAS  C:\Users\rokko\AppData\Local\Temp\ccKJi3OA.s 			page 33


 494:Drivers/STM32F0xx_HAL_Driver/Src/stm32f0xx_hal_gpio.c ****   * @param  GPIO_Pin Specifies the port pin connected to corresponding EXTI line.
 495:Drivers/STM32F0xx_HAL_Driver/Src/stm32f0xx_hal_gpio.c ****   * @retval None
 496:Drivers/STM32F0xx_HAL_Driver/Src/stm32f0xx_hal_gpio.c ****   */
 497:Drivers/STM32F0xx_HAL_Driver/Src/stm32f0xx_hal_gpio.c **** void HAL_GPIO_EXTI_IRQHandler(uint16_t GPIO_Pin)
 498:Drivers/STM32F0xx_HAL_Driver/Src/stm32f0xx_hal_gpio.c **** {
 499:Drivers/STM32F0xx_HAL_Driver/Src/stm32f0xx_hal_gpio.c ****   /* EXTI line interrupt detected */
 500:Drivers/STM32F0xx_HAL_Driver/Src/stm32f0xx_hal_gpio.c ****   if(__HAL_GPIO_EXTI_GET_IT(GPIO_Pin) != 0x00u)
 501:Drivers/STM32F0xx_HAL_Driver/Src/stm32f0xx_hal_gpio.c ****   { 
 502:Drivers/STM32F0xx_HAL_Driver/Src/stm32f0xx_hal_gpio.c ****     __HAL_GPIO_EXTI_CLEAR_IT(GPIO_Pin);
 503:Drivers/STM32F0xx_HAL_Driver/Src/stm32f0xx_hal_gpio.c ****     HAL_GPIO_EXTI_Callback(GPIO_Pin);
 504:Drivers/STM32F0xx_HAL_Driver/Src/stm32f0xx_hal_gpio.c ****   }
 505:Drivers/STM32F0xx_HAL_Driver/Src/stm32f0xx_hal_gpio.c **** }
 506:Drivers/STM32F0xx_HAL_Driver/Src/stm32f0xx_hal_gpio.c **** 
 507:Drivers/STM32F0xx_HAL_Driver/Src/stm32f0xx_hal_gpio.c **** /**
 508:Drivers/STM32F0xx_HAL_Driver/Src/stm32f0xx_hal_gpio.c ****   * @brief  EXTI line detection callback.
 509:Drivers/STM32F0xx_HAL_Driver/Src/stm32f0xx_hal_gpio.c ****   * @param  GPIO_Pin Specifies the port pin connected to corresponding EXTI line.
 510:Drivers/STM32F0xx_HAL_Driver/Src/stm32f0xx_hal_gpio.c ****   * @retval None
 511:Drivers/STM32F0xx_HAL_Driver/Src/stm32f0xx_hal_gpio.c ****   */
 512:Drivers/STM32F0xx_HAL_Driver/Src/stm32f0xx_hal_gpio.c **** __weak void HAL_GPIO_EXTI_Callback(uint16_t GPIO_Pin)
 513:Drivers/STM32F0xx_HAL_Driver/Src/stm32f0xx_hal_gpio.c **** {
 1116              		.loc 1 513 1 is_stmt 1 view -0
 1117              		.cfi_startproc
 1118              		@ args = 0, pretend = 0, frame = 0
 1119              		@ frame_needed = 0, uses_anonymous_args = 0
 1120              		@ link register save eliminated.
 514:Drivers/STM32F0xx_HAL_Driver/Src/stm32f0xx_hal_gpio.c ****   /* Prevent unused argument(s) compilation warning */
 515:Drivers/STM32F0xx_HAL_Driver/Src/stm32f0xx_hal_gpio.c ****   UNUSED(GPIO_Pin);
 1121              		.loc 1 515 3 view .LVU357
 516:Drivers/STM32F0xx_HAL_Driver/Src/stm32f0xx_hal_gpio.c **** 
 517:Drivers/STM32F0xx_HAL_Driver/Src/stm32f0xx_hal_gpio.c ****   /* NOTE: This function should not be modified, when the callback is needed,
 518:Drivers/STM32F0xx_HAL_Driver/Src/stm32f0xx_hal_gpio.c ****             the HAL_GPIO_EXTI_Callback could be implemented in the user file
 519:Drivers/STM32F0xx_HAL_Driver/Src/stm32f0xx_hal_gpio.c ****    */ 
 520:Drivers/STM32F0xx_HAL_Driver/Src/stm32f0xx_hal_gpio.c **** }
 1122              		.loc 1 520 1 is_stmt 0 view .LVU358
 1123              		@ sp needed
 1124 0000 7047     		bx	lr
 1125              		.cfi_endproc
 1126              	.LFE47:
 1128 0002 C046     		.section	.text.HAL_GPIO_EXTI_IRQHandler,"ax",%progbits
 1129              		.align	1
 1130              		.p2align 2,,3
 1131              		.global	HAL_GPIO_EXTI_IRQHandler
 1132              		.syntax unified
 1133              		.code	16
 1134              		.thumb_func
 1136              	HAL_GPIO_EXTI_IRQHandler:
 1137              	.LVL91:
 1138              	.LFB46:
 498:Drivers/STM32F0xx_HAL_Driver/Src/stm32f0xx_hal_gpio.c ****   /* EXTI line interrupt detected */
 1139              		.loc 1 498 1 is_stmt 1 view -0
 1140              		.cfi_startproc
 1141              		@ args = 0, pretend = 0, frame = 0
 1142              		@ frame_needed = 0, uses_anonymous_args = 0
 500:Drivers/STM32F0xx_HAL_Driver/Src/stm32f0xx_hal_gpio.c ****   { 
 1143              		.loc 1 500 3 view .LVU360
 500:Drivers/STM32F0xx_HAL_Driver/Src/stm32f0xx_hal_gpio.c ****   { 
 1144              		.loc 1 500 6 is_stmt 0 view .LVU361
ARM GAS  C:\Users\rokko\AppData\Local\Temp\ccKJi3OA.s 			page 34


 1145 0000 044B     		ldr	r3, .L71
 498:Drivers/STM32F0xx_HAL_Driver/Src/stm32f0xx_hal_gpio.c ****   /* EXTI line interrupt detected */
 1146              		.loc 1 498 1 view .LVU362
 1147 0002 10B5     		push	{r4, lr}
 1148              	.LCFI7:
 1149              		.cfi_def_cfa_offset 8
 1150              		.cfi_offset 4, -8
 1151              		.cfi_offset 14, -4
 500:Drivers/STM32F0xx_HAL_Driver/Src/stm32f0xx_hal_gpio.c ****   { 
 1152              		.loc 1 500 6 view .LVU363
 1153 0004 5A69     		ldr	r2, [r3, #20]
 500:Drivers/STM32F0xx_HAL_Driver/Src/stm32f0xx_hal_gpio.c ****   { 
 1154              		.loc 1 500 5 view .LVU364
 1155 0006 1042     		tst	r0, r2
 1156 0008 00D1     		bne	.L70
 1157              	.LVL92:
 1158              	.L65:
 505:Drivers/STM32F0xx_HAL_Driver/Src/stm32f0xx_hal_gpio.c **** 
 1159              		.loc 1 505 1 view .LVU365
 1160              		@ sp needed
 1161 000a 10BD     		pop	{r4, pc}
 1162              	.LVL93:
 1163              	.L70:
 502:Drivers/STM32F0xx_HAL_Driver/Src/stm32f0xx_hal_gpio.c ****     HAL_GPIO_EXTI_Callback(GPIO_Pin);
 1164              		.loc 1 502 5 is_stmt 1 view .LVU366
 1165 000c 5861     		str	r0, [r3, #20]
 503:Drivers/STM32F0xx_HAL_Driver/Src/stm32f0xx_hal_gpio.c ****   }
 1166              		.loc 1 503 5 view .LVU367
 1167 000e FFF7FEFF 		bl	HAL_GPIO_EXTI_Callback
 1168              	.LVL94:
 505:Drivers/STM32F0xx_HAL_Driver/Src/stm32f0xx_hal_gpio.c **** 
 1169              		.loc 1 505 1 is_stmt 0 view .LVU368
 1170 0012 FAE7     		b	.L65
 1171              	.L72:
 1172              		.align	2
 1173              	.L71:
 1174 0014 00040140 		.word	1073808384
 1175              		.cfi_endproc
 1176              	.LFE46:
 1178              		.text
 1179              	.Letext0:
 1180              		.file 2 "c:\\users\\rokko\\appdata\\roaming\\code\\user\\globalstorage\\bmd.stm32-for-vscode\\@xpa
 1181              		.file 3 "c:\\users\\rokko\\appdata\\roaming\\code\\user\\globalstorage\\bmd.stm32-for-vscode\\@xpa
 1182              		.file 4 "Drivers/CMSIS/Device/ST/STM32F0xx/Include/stm32f030x6.h"
 1183              		.file 5 "Drivers/STM32F0xx_HAL_Driver/Inc/stm32f0xx_hal_def.h"
 1184              		.file 6 "Drivers/STM32F0xx_HAL_Driver/Inc/stm32f0xx_hal_gpio.h"
ARM GAS  C:\Users\rokko\AppData\Local\Temp\ccKJi3OA.s 			page 35

